                           .text:00401000 55                               push   %ebp
                           .text:00401001 8b ec                            mov    %esp,%ebp
                           .text:00401003 83 ec 40                         sub    $0x40,%esp
                           .text:00401006 a1 04 50 40 00                   mov    0x405004,%eax
                           .text:0040100b 33 c5                            xor    %ebp,%eax
                           .text:0040100d 89 45 fc                         mov    %eax,-0x4(%ebp)
                           .text:00401010 56                               push   %esi
                           .text:00401011 8b 75 08                         mov    0x8(%ebp),%esi
                           .text:00401014 68 00 7f 00 00                   push   $0x7f00
                           .text:00401019 6a 00                            push   $0x0
                           .text:0040101b c7 05 c0 54 40 00 03 00 00 00    movl   $0x3,0x4054c0
                           .text:00401025 c7 05 c4 54 40 00 d0 1c 40 00    movl   $0x401cd0,0x4054c4
                           .text:0040102f c7 05 c8 54 40 00 00 00 00 00    movl   $0x0,0x4054c8
                           .text:00401039 c7 05 cc 54 40 00 00 00 00 00    movl   $0x0,0x4054cc
                           .text:00401043 89 35 d0 54 40 00                mov    %esi,0x4054d0
                           .text:00401049 ff 15 88 30 40 00                call   *0x403088
                           .text:0040104f 68 00 7f 00 00                   push   $0x7f00
                           .text:00401054 6a 00                            push   $0x0
                           .text:00401056 a3 d4 54 40 00                   mov    %eax,0x4054d4
                           .text:0040105b ff 15 64 30 40 00                call   *0x403064
                           .text:00401061 6a 00                            push   $0x0
                           .text:00401063 a3 d8 54 40 00                   mov    %eax,0x4054d8
                           .text:00401068 ff 15 00 30 40 00                call   *0x403000
                           .text:0040106e 68 c0 54 40 00                   push   $0x4054c0
                           .text:00401073 a3 dc 54 40 00                   mov    %eax,0x4054dc
                           .text:00401078 c7 05 e4 54 40 00 7c 31 40 00    movl   $0x40317c,0x4054e4
                           .text:00401082 ff 15 48 30 40 00                call   *0x403048
                           .text:00401088 6a 00                            push   $0x0
                           .text:0040108a 56                               push   %esi
                           .text:0040108b 8b 35 70 30 40 00                mov    0x403070,%esi
                           .text:00401091 6a 00                            push   $0x0
                           .text:00401093 6a 00                            push   $0x0
                           .text:00401095 68 cc 01 00 00                   push   $0x1cc
                           .text:0040109a 68 96 00 00 00                   push   $0x96
                           .text:0040109f 68 96 00 00 00                   push   $0x96
                           .text:004010a4 6a 64                            push   $0x64
                           .text:004010a6 68 00 00 cf 00                   push   $0xcf0000
                           .text:004010ab 68 7c 31 40 00                   push   $0x40317c
                           .text:004010b0 68 7c 31 40 00                   push   $0x40317c
                           .text:004010b5 6a 00                            push   $0x0
                           .text:004010b7 ff d6                            call   *%esi
                           .text:004010b9 6a 00                            push   $0x0
                           .text:004010bb 6a 00                            push   $0x0
                           .text:004010bd 6a 00                            push   $0x0
                           .text:004010bf 50                               push   %eax
                           .text:004010c0 6a 23                            push   $0x23
                           .text:004010c2 68 87 00 00 00                   push   $0x87
                           .text:004010c7 6a 01                            push   $0x1
                           .text:004010c9 6a 05                            push   $0x5
                           .text:004010cb 68 00 00 00 50                   push   $0x50000000
                           .text:004010d0 68 84 31 40 00                   push   $0x403184
                           .text:004010d5 68 94 31 40 00                   push   $0x403194
                           .text:004010da 6a 00                            push   $0x0
                           .text:004010dc a3 a4 53 40 00                   mov    %eax,0x4053a4
                           .text:004010e1 ff d6                            call   *%esi
                           .text:004010e3 6a 00                            push   $0x0
                           .text:004010e5 6a 00                            push   $0x0
                           .text:004010e7 6a 00                            push   $0x0
                           .text:004010e9 ff 35 a4 53 40 00                pushl  0x4053a4
                           .text:004010ef a3 20 57 40 00                   mov    %eax,0x405720
                           .text:004010f4 6a 14                            push   $0x14
                           .text:004010f6 6a 46                            push   $0x46
                           .text:004010f8 6a 28                            push   $0x28
                           .text:004010fa 6a 05                            push   $0x5
                           .text:004010fc 68 00 00 00 50                   push   $0x50000000
                           .text:00401101 68 9c 31 40 00                   push   $0x40319c
                           .text:00401106 68 94 31 40 00                   push   $0x403194
                           .text:0040110b 6a 00                            push   $0x0
                           .text:0040110d ff d6                            call   *%esi
                           .text:0040110f 6a 00                            push   $0x0
                           .text:00401111 6a 00                            push   $0x0
                           .text:00401113 6a 00                            push   $0x0
                           .text:00401115 ff 35 a4 53 40 00                pushl  0x4053a4
                           .text:0040111b 6a 14                            push   $0x14
                           .text:0040111d 6a 46                            push   $0x46
                           .text:0040111f 6a 3c                            push   $0x3c
                           .text:00401121 6a 05                            push   $0x5
                           .text:00401123 68 00 00 00 50                   push   $0x50000000
                           .text:00401128 68 a8 31 40 00                   push   $0x4031a8
                           .text:0040112d 68 94 31 40 00                   push   $0x403194
                           .text:00401132 6a 00                            push   $0x0
                           .text:00401134 ff d6                            call   *%esi
                           .text:00401136 6a 00                            push   $0x0
                           .text:00401138 6a 00                            push   $0x0
                           .text:0040113a 6a 00                            push   $0x0
                           .text:0040113c ff 35 a4 53 40 00                pushl  0x4053a4
                           .text:00401142 6a 14                            push   $0x14
                           .text:00401144 6a 46                            push   $0x46
                           .text:00401146 6a 50                            push   $0x50
                           .text:00401148 6a 05                            push   $0x5
                           .text:0040114a 68 00 00 00 50                   push   $0x50000000
                           .text:0040114f 68 b4 31 40 00                   push   $0x4031b4
                           .text:00401154 68 94 31 40 00                   push   $0x403194
                           .text:00401159 6a 00                            push   $0x0
                           .text:0040115b ff d6                            call   *%esi
                           .text:0040115d 6a 00                            push   $0x0
                           .text:0040115f 6a 00                            push   $0x0
                           .text:00401161 6a 00                            push   $0x0
                           .text:00401163 ff 35 a4 53 40 00                pushl  0x4053a4
                           .text:00401169 6a 14                            push   $0x14
                           .text:0040116b 6a 46                            push   $0x46
                           .text:0040116d 6a 64                            push   $0x64
                           .text:0040116f 6a 05                            push   $0x5
                           .text:00401171 68 00 00 00 50                   push   $0x50000000
                           .text:00401176 68 bc 31 40 00                   push   $0x4031bc
                           .text:0040117b 68 94 31 40 00                   push   $0x403194
                           .text:00401180 6a 00                            push   $0x0
                           .text:00401182 ff d6                            call   *%esi
                           .text:00401184 6a 0a                            push   $0xa
                           .text:00401186 6a 04                            push   $0x4
                           .text:00401188 8d 45 e4                         lea    -0x1c(%ebp),%eax
                           .text:0040118b 50                               push   %eax
                           .text:0040118c 6a 0d                            push   $0xd
                           .text:0040118e ff 15 c4 30 40 00                call   *0x4030c4
                           .text:00401194 83 c4 10                         add    $0x10,%esp
                           .text:00401197 6a 00                            push   $0x0
                           .text:00401199 6a 00                            push   $0x0
                           .text:0040119b 68 a0 0f 00 00                   push   $0xfa0
                           .text:004011a0 ff 35 a4 53 40 00                pushl  0x4053a4
                           .text:004011a6 6a 14                            push   $0x14
                           .text:004011a8 6a 32                            push   $0x32
                           .text:004011aa 6a 28                            push   $0x28
                           .text:004011ac 6a 50                            push   $0x50
                           .text:004011ae 68 00 08 80 50                   push   $0x50800800
                           .text:004011b3 68 c4 31 40 00                   push   $0x4031c4
                           .text:004011b8 68 c8 31 40 00                   push   $0x4031c8
                           .text:004011bd 6a 00                            push   $0x0
                           .text:004011bf ff d6                            call   *%esi
                           .text:004011c1 6a 00                            push   $0x0
                           .text:004011c3 6a 00                            push   $0x0
                           .text:004011c5 68 b8 0b 00 00                   push   $0xbb8
                           .text:004011ca ff 35 a4 53 40 00                pushl  0x4053a4
                           .text:004011d0 a3 ac 53 40 00                   mov    %eax,0x4053ac
                           .text:004011d5 6a 14                            push   $0x14
                           .text:004011d7 6a 32                            push   $0x32
                           .text:004011d9 6a 3c                            push   $0x3c
                           .text:004011db 6a 50                            push   $0x50
                           .text:004011dd 68 00 00 80 50                   push   $0x50800000
                           .text:004011e2 68 d0 31 40 00                   push   $0x4031d0
                           .text:004011e7 68 c8 31 40 00                   push   $0x4031c8
                           .text:004011ec 6a 00                            push   $0x0
                           .text:004011ee ff d6                            call   *%esi
                           .text:004011f0 6a 00                            push   $0x0
                           .text:004011f2 6a 00                            push   $0x0
                           .text:004011f4 68 28 23 00 00                   push   $0x2328
                           .text:004011f9 ff 35 a4 53 40 00                pushl  0x4053a4
                           .text:004011ff a3 a0 53 40 00                   mov    %eax,0x4053a0
                           .text:00401204 6a 14                            push   $0x14
                           .text:00401206 6a 32                            push   $0x32
                           .text:00401208 6a 64                            push   $0x64
                           .text:0040120a 6a 50                            push   $0x50
                           .text:0040120c 68 00 00 80 50                   push   $0x50800000
                           .text:00401211 68 c4 31 40 00                   push   $0x4031c4
                           .text:00401216 68 c8 31 40 00                   push   $0x4031c8
                           .text:0040121b 6a 00                            push   $0x0
                           .text:0040121d ff d6                            call   *%esi
                           .text:0040121f 6a 00                            push   $0x0
                           .text:00401221 6a 00                            push   $0x0
                           .text:00401223 68 e8 03 00 00                   push   $0x3e8
                           .text:00401228 ff 35 a4 53 40 00                pushl  0x4053a4
                           .text:0040122e a3 04 56 40 00                   mov    %eax,0x405604
                           .text:00401233 8d 45 e4                         lea    -0x1c(%ebp),%eax
                           .text:00401236 6a 14                            push   $0x14
                           .text:00401238 6a 32                            push   $0x32
                           .text:0040123a 6a 50                            push   $0x50
                           .text:0040123c 6a 50                            push   $0x50
                           .text:0040123e 68 00 00 80 50                   push   $0x50800000
                           .text:00401243 50                               push   %eax
                           .text:00401244 68 d4 31 40 00                   push   $0x4031d4
                           .text:00401249 6a 00                            push   $0x0
                           .text:0040124b ff d6                            call   *%esi
                           .text:0040124d 6a 00                            push   $0x0
                           .text:0040124f 6a 00                            push   $0x0
                           .text:00401251 68 d0 07 00 00                   push   $0x7d0
                           .text:00401256 ff 35 a4 53 40 00                pushl  0x4053a4
                           .text:0040125c a3 28 57 40 00                   mov    %eax,0x405728
                           .text:00401261 6a 32                            push   $0x32
                           .text:00401263 6a 64                            push   $0x64
                           .text:00401265 6a 7d                            push   $0x7d
                           .text:00401267 6a 05                            push   $0x5
                           .text:00401269 68 00 00 00 50                   push   $0x50000000
                           .text:0040126e 68 dc 31 40 00                   push   $0x4031dc
                           .text:00401273 68 d4 31 40 00                   push   $0x4031d4
                           .text:00401278 6a 00                            push   $0x0
                           .text:0040127a ff d6                            call   *%esi
                           .text:0040127c 6a 00                            push   $0x0
                           .text:0040127e 6a 00                            push   $0x0
                           .text:00401280 68 88 13 00 00                   push   $0x1388
                           .text:00401285 ff 35 a4 53 40 00                pushl  0x4053a4
                           .text:0040128b 6a 32                            push   $0x32
                           .text:0040128d 6a 64                            push   $0x64
                           .text:0040128f 68 b4 00 00 00                   push   $0xb4
                           .text:00401294 6a 05                            push   $0x5
                           .text:00401296 68 00 00 00 50                   push   $0x50000000
                           .text:0040129b 68 e4 31 40 00                   push   $0x4031e4
                           .text:004012a0 68 d4 31 40 00                   push   $0x4031d4
                           .text:004012a5 6a 00                            push   $0x0
                           .text:004012a7 ff d6                            call   *%esi
                           .text:004012a9 6a 00                            push   $0x0
                           .text:004012ab 6a 00                            push   $0x0
                           .text:004012ad 68 58 1b 00 00                   push   $0x1b58
                           .text:004012b2 ff 35 a4 53 40 00                pushl  0x4053a4
                           .text:004012b8 6a 41                            push   $0x41
                           .text:004012ba 68 87 00 00 00                   push   $0x87
                           .text:004012bf 68 f0 00 00 00                   push   $0xf0
                           .text:004012c4 6a 05                            push   $0x5
                           .text:004012c6 68 07 00 00 50                   push   $0x50000007
                           .text:004012cb 68 ec 31 40 00                   push   $0x4031ec
                           .text:004012d0 68 d4 31 40 00                   push   $0x4031d4
                           .text:004012d5 6a 00                            push   $0x0
                           .text:004012d7 ff d6                            call   *%esi
                           .text:004012d9 6a 00                            push   $0x0
                           .text:004012db 6a 00                            push   $0x0
                           .text:004012dd 68 58 1b 00 00                   push   $0x1b58
                           .text:004012e2 ff 35 a4 53 40 00                pushl  0x4053a4
                           .text:004012e8 6a 14                            push   $0x14
                           .text:004012ea 6a 78                            push   $0x78
                           .text:004012ec 68 04 01 00 00                   push   $0x104
                           .text:004012f1 6a 0a                            push   $0xa
                           .text:004012f3 68 09 00 02 50                   push   $0x50020009
                           .text:004012f8 68 fc 31 40 00                   push   $0x4031fc
                           .text:004012fd 68 d4 31 40 00                   push   $0x4031d4
                           .text:00401302 6a 00                            push   $0x0
                           .text:00401304 ff d6                            call   *%esi
                           .text:00401306 6a 00                            push   $0x0
                           .text:00401308 6a 00                            push   $0x0
                           .text:0040130a 68 58 1b 00 00                   push   $0x1b58
                           .text:0040130f ff 35 a4 53 40 00                pushl  0x4053a4
                           .text:00401315 a3 e8 54 40 00                   mov    %eax,0x4054e8
                           .text:0040131a 6a 14                            push   $0x14
                           .text:0040131c 6a 78                            push   $0x78
                           .text:0040131e 68 18 01 00 00                   push   $0x118
                           .text:00401323 6a 0a                            push   $0xa
                           .text:00401325 68 09 00 00 50                   push   $0x50000009
                           .text:0040132a 68 04 32 40 00                   push   $0x403204
                           .text:0040132f 68 d4 31 40 00                   push   $0x4031d4
                           .text:00401334 6a 00                            push   $0x0
                           .text:00401336 ff d6                            call   *%esi
                           .text:00401338 6a 00                            push   $0x0
                           .text:0040133a 6a 00                            push   $0x0
                           .text:0040133c 68 40 1f 00 00                   push   $0x1f40
                           .text:00401341 ff 35 a4 53 40 00                pushl  0x4053a4
                           .text:00401347 a3 14 57 40 00                   mov    %eax,0x405714
                           .text:0040134c 6a 69                            push   $0x69
                           .text:0040134e 68 87 00 00 00                   push   $0x87
                           .text:00401353 68 36 01 00 00                   push   $0x136
                           .text:00401358 6a 05                            push   $0x5
                           .text:0040135a 68 07 00 00 50                   push   $0x50000007
                           .text:0040135f 68 0c 32 40 00                   push   $0x40320c
                           .text:00401364 68 d4 31 40 00                   push   $0x4031d4
                           .text:00401369 6a 00                            push   $0x0
                           .text:0040136b ff d6                            call   *%esi
                           .text:0040136d 6a 00                            push   $0x0
                           .text:0040136f 6a 00                            push   $0x0
                           .text:00401371 68 40 1f 00 00                   push   $0x1f40
                           .text:00401376 ff 35 a4 53 40 00                pushl  0x4053a4
                           .text:0040137c 6a 14                            push   $0x14
                           .text:0040137e 6a 78                            push   $0x78
                           .text:00401380 68 4a 01 00 00                   push   $0x14a
                           .text:00401385 6a 0a                            push   $0xa
                           .text:00401387 68 09 00 02 50                   push   $0x50020009
                           .text:0040138c 68 20 32 40 00                   push   $0x403220
                           .text:00401391 68 d4 31 40 00                   push   $0x4031d4
                           .text:00401396 6a 00                            push   $0x0
                           .text:00401398 ff d6                            call   *%esi
                           .text:0040139a 6a 00                            push   $0x0
                           .text:0040139c 6a 00                            push   $0x0
                           .text:0040139e 68 40 1f 00 00                   push   $0x1f40
                           .text:004013a3 ff 35 a4 53 40 00                pushl  0x4053a4
                           .text:004013a9 a3 10 57 40 00                   mov    %eax,0x405710
                           .text:004013ae 6a 14                            push   $0x14
                           .text:004013b0 6a 78                            push   $0x78
                           .text:004013b2 68 5e 01 00 00                   push   $0x15e
                           .text:004013b7 6a 0a                            push   $0xa
                           .text:004013b9 68 09 00 00 50                   push   $0x50000009
                           .text:004013be 68 28 32 40 00                   push   $0x403228
                           .text:004013c3 68 d4 31 40 00                   push   $0x4031d4
                           .text:004013c8 6a 00                            push   $0x0
                           .text:004013ca ff d6                            call   *%esi
                           .text:004013cc 6a 00                            push   $0x0
                           .text:004013ce 6a 00                            push   $0x0
                           .text:004013d0 68 40 1f 00 00                   push   $0x1f40
                           .text:004013d5 ff 35 a4 53 40 00                pushl  0x4053a4
                           .text:004013db a3 f8 54 40 00                   mov    %eax,0x4054f8
                           .text:004013e0 6a 14                            push   $0x14
                           .text:004013e2 6a 78                            push   $0x78
                           .text:004013e4 68 72 01 00 00                   push   $0x172
                           .text:004013e9 6a 0a                            push   $0xa
                           .text:004013eb 68 09 00 00 50                   push   $0x50000009
                           .text:004013f0 68 30 32 40 00                   push   $0x403230
                           .text:004013f5 68 d4 31 40 00                   push   $0x4031d4
                           .text:004013fa 6a 00                            push   $0x0
                           .text:004013fc ff d6                            call   *%esi
                           .text:004013fe 6a 00                            push   $0x0
                           .text:00401400 6a 00                            push   $0x0
                           .text:00401402 6a 00                            push   $0x0
                           .text:00401404 ff 35 a4 53 40 00                pushl  0x4053a4
                           .text:0040140a a3 fc 54 40 00                   mov    %eax,0x4054fc
                           .text:0040140f 6a 14                            push   $0x14
                           .text:00401411 6a 28                            push   $0x28
                           .text:00401413 68 86 01 00 00                   push   $0x186
                           .text:00401418 6a 0a                            push   $0xa
                           .text:0040141a 68 00 00 00 50                   push   $0x50000000
                           .text:0040141f 68 38 32 40 00                   push   $0x403238
                           .text:00401424 68 94 31 40 00                   push   $0x403194
                           .text:00401429 6a 00                            push   $0x0
                           .text:0040142b ff d6                            call   *%esi
                           .text:0040142d 6a 00                            push   $0x0
                           .text:0040142f 6a 00                            push   $0x0
                           .text:00401431 68 70 17 00 00                   push   $0x1770
                           .text:00401436 ff 35 a4 53 40 00                pushl  0x4053a4
                           .text:0040143c 6a 14                            push   $0x14
                           .text:0040143e 6a 50                            push   $0x50
                           .text:00401440 68 86 01 00 00                   push   $0x186
                           .text:00401445 6a 2d                            push   $0x2d
                           .text:00401447 68 00 00 80 50                   push   $0x50800000
                           .text:0040144c 68 40 32 40 00                   push   $0x403240
                           .text:00401451 68 d4 31 40 00                   push   $0x4031d4
                           .text:00401456 6a 00                            push   $0x0
                           .text:00401458 ff d6                            call   *%esi
                           .text:0040145a 8b 35 90 30 40 00                mov    0x403090,%esi
                           .text:00401460 6a 00                            push   $0x0
                           .text:00401462 6a 04                            push   $0x4
                           .text:00401464 68 c5 00 00 00                   push   $0xc5
                           .text:00401469 ff 35 a0 53 40 00                pushl  0x4053a0
                           .text:0040146f a3 a8 53 40 00                   mov    %eax,0x4053a8
                           .text:00401474 ff d6                            call   *%esi
                           .text:00401476 6a 00                            push   $0x0
                           .text:00401478 6a 00                            push   $0x0
                           .text:0040147a 68 f5 00 00 00                   push   $0xf5
                           .text:0040147f 80 3d b7 53 40 00 00             cmpb   $0x0,0x4053b7
                           .text:00401486 a1 e8 54 40 00                   mov    0x4054e8,%eax
                           .text:0040148b 0f 45 05 14 57 40 00             cmovne 0x405714,%eax
                           .text:00401492 50                               push   %eax
                           .text:00401493 ff d6                            call   *%esi
                           .text:00401495 6a 00                            push   $0x0
                           .text:00401497 6a 00                            push   $0x0
                           .text:00401499 68 f5 00 00 00                   push   $0xf5
                           .text:0040149e ff 35 10 57 40 00                pushl  0x405710
                           .text:004014a4 ff d6                            call   *%esi
                           .text:004014a6 ff 75 14                         pushl  0x14(%ebp)
                           .text:004014a9 ff 35 a4 53 40 00                pushl  0x4053a4
                           .text:004014af ff 15 5c 30 40 00                call   *0x40305c
                           .text:004014b5 ff 35 a4 53 40 00                pushl  0x4053a4
                           .text:004014bb ff 15 78 30 40 00                call   *0x403078
                           .text:004014c1 68 08 57 40 00                   push   $0x405708
                           .text:004014c6 ff 15 08 30 40 00                call   *0x403008
                           .text:004014cc 68 fe 00 00 00                   push   $0xfe
                           .text:004014d1 6a 00                            push   $0x0
                           .text:004014d3 68 08 56 40 00                   push   $0x405608
                           .text:004014d8 e8 5b 16 00 00                   call   0x00402b38
                           .text:004014dd 68 fe 00 00 00                   push   $0xfe
                           .text:004014e2 6a 00                            push   $0x0
                           .text:004014e4 68 00 55 40 00                   push   $0x405500
                           .text:004014e9 e8 4a 16 00 00                   call   0x00402b38
                           .text:004014ee 68 fe 00 00 00                   push   $0xfe
                           .text:004014f3 6a 00                            push   $0x0
                           .text:004014f5 68 30 57 40 00                   push   $0x405730
                           .text:004014fa e8 39 16 00 00                   call   0x00402b38
                           .text:004014ff 68 fe 00 00 00                   push   $0xfe
                           .text:00401504 6a 00                            push   $0x0
                           .text:00401506 68 c0 53 40 00                   push   $0x4053c0
                           .text:0040150b e8 28 16 00 00                   call   0x00402b38
                           .text:00401510 83 c4 30                         add    $0x30,%esp
                           .text:00401513 80 3d b4 53 40 00 00             cmpb   $0x0,0x4053b4
                           .text:0040151a 0f 85 95 07 00 00                jne    0x00401cb5
                           .text:00401520 8b 35 94 30 40 00                mov    0x403094,%esi
                           .text:00401526 53                               push   %ebx
                           .text:00401527 8b 1d 58 30 40 00                mov    0x403058,%ebx
                           .text:0040152d 57                               push   %edi
                           .text:0040152e 8b 3d 50 30 40 00                mov    0x403050,%edi
                           .text:00401534 0f 1f 40 00                      nopl   0x0(%eax)
                           .text:00401538 0f 1f 84 00 00 00 00 00          nopl   0x0(%eax,%eax,1)
                           .text:00401540 80 3d b5 53 40 00 00             cmpb   $0x0,0x4053b5
                           .text:00401547 0f 84 6a 01 00 00                je     0x004016b7
                           .text:0040154d 83 3d b0 53 40 00 03             cmpl   $0x3,0x4053b0
                           .text:00401554 c7 05 f0 54 40 00 03 00 00 00    movl   $0x3,0x4054f0
                           .text:0040155e 74 16                            je     0x00401576
                           .text:00401560 68 50 32 40 00                   push   $0x403250
                           .text:00401565 ff 35 20 57 40 00                pushl  0x405720
                           .text:0040156b ff d7                            call   *%edi
                           .text:0040156d 50                               push   %eax
                           .text:0040156e ff 35 a4 53 40 00                pushl  0x4053a4
                           .text:00401574 ff d6                            call   *%esi
                           .text:00401576 68 fe 00 00 00                   push   $0xfe
                           .text:0040157b 6a 00                            push   $0x0
                           .text:0040157d 68 08 56 40 00                   push   $0x405608
                           .text:00401582 e8 b1 15 00 00                   call   0x00402b38
                           .text:00401587 68 fe 00 00 00                   push   $0xfe
                           .text:0040158c 6a 00                            push   $0x0
                           .text:0040158e 68 30 57 40 00                   push   $0x405730
                           .text:00401593 e8 a0 15 00 00                   call   0x00402b38
                           .text:00401598 68 fe 00 00 00                   push   $0xfe
                           .text:0040159d 6a 00                            push   $0x0
                           .text:0040159f 68 c0 53 40 00                   push   $0x4053c0
                           .text:004015a4 e8 8f 15 00 00                   call   0x00402b38
                           .text:004015a9 83 c4 24                         add    $0x24,%esp
                           .text:004015ac 33 f6                            xor    %esi,%esi
                           .text:004015ae 66 90                            xchg   %ax,%ax
                           .text:004015b0 56                               push   %esi
                           .text:004015b1 ff d3                            call   *%ebx
                           .text:004015b3 66 85 c0                         test   %ax,%ax
                           .text:004015b6 74 19                            je     0x004015d1
                           .text:004015b8 80 be 00 55 40 00 00             cmpb   $0x0,0x405500(%esi)
                           .text:004015bf c6 86 08 56 40 00 01             movb   $0x1,0x405608(%esi)
                           .text:004015c6 75 19                            jne    0x004015e1
                           .text:004015c8 c6 86 30 57 40 00 01             movb   $0x1,0x405730(%esi)
                           .text:004015cf eb 10                            jmp    0x004015e1
                           .text:004015d1 80 be 00 55 40 00 00             cmpb   $0x0,0x405500(%esi)
                           .text:004015d8 74 07                            je     0x004015e1
                           .text:004015da c6 86 c0 53 40 00 01             movb   $0x1,0x4053c0(%esi)
                           .text:004015e1 8a 86 08 56 40 00                mov    0x405608(%esi),%al
                           .text:004015e7 88 86 00 55 40 00                mov    %al,0x405500(%esi)
                           .text:004015ed 46                               inc    %esi
                           .text:004015ee 81 fe fe 00 00 00                cmp    $0xfe,%esi
                           .text:004015f4 7c ba                            jl     0x004015b0
                           .text:004015f6 80 3d c1 53 40 00 00             cmpb   $0x0,0x4053c1
                           .text:004015fd 8a 0d be 54 40 00                mov    0x4054be,%cl
                           .text:00401603 74 10                            je     0x00401615
                           .text:00401605 84 c9                            test   %cl,%cl
                           .text:00401607 75 0c                            jne    0x00401615
                           .text:00401609 c6 05 be 54 40 00 01             movb   $0x1,0x4054be
                           .text:00401610 e9 8b 06 00 00                   jmp    0x00401ca0
                           .text:00401615 33 c0                            xor    %eax,%eax
                           .text:00401617 80 b8 c0 53 40 00 00             cmpb   $0x0,0x4053c0(%eax)
                           .text:0040161e 74 04                            je     0x00401624
                           .text:00401620 84 c9                            test   %cl,%cl
                           .text:00401622 75 0d                            jne    0x00401631
                           .text:00401624 40                               inc    %eax
                           .text:00401625 3d fe 00 00 00                   cmp    $0xfe,%eax
                           .text:0040162a 7c eb                            jl     0x00401617
                           .text:0040162c e9 1e 06 00 00                   jmp    0x00401c4f
                           .text:00401631 6a 0a                            push   $0xa
                           .text:00401633 6a 04                            push   $0x4
                           .text:00401635 68 00 56 40 00                   push   $0x405600
                           .text:0040163a 50                               push   %eax
                           .text:0040163b ff 15 c4 30 40 00                call   *0x4030c4
                           .text:00401641 83 c4 10                         add    $0x10,%esp
                           .text:00401644 ff 35 ac 53 40 00                pushl  0x4053ac
                           .text:0040164a ff 15 98 30 40 00                call   *0x403098
                           .text:00401650 68 00 56 40 00                   push   $0x405600
                           .text:00401655 ff 35 a8 53 40 00                pushl  0x4053a8
                           .text:0040165b ff d7                            call   *%edi
                           .text:0040165d 50                               push   %eax
                           .text:0040165e ff 35 a4 53 40 00                pushl  0x4053a4
                           .text:00401664 a1 94 30 40 00                   mov    0x403094,%eax
                           .text:00401669 ff d0                            call   *%eax
                           .text:0040166b 8b 35 90 30 40 00                mov    0x403090,%esi
                           .text:00401671 6a 00                            push   $0x0
                           .text:00401673 6a 00                            push   $0x0
                           .text:00401675 68 f1 00 00 00                   push   $0xf1
                           .text:0040167a ff 35 10 57 40 00                pushl  0x405710
                           .text:00401680 c6 05 b5 53 40 00 00             movb   $0x0,0x4053b5
                           .text:00401687 c6 05 be 54 40 00 00             movb   $0x0,0x4054be
                           .text:0040168e ff d6                            call   *%esi
                           .text:00401690 6a 00                            push   $0x0
                           .text:00401692 6a 00                            push   $0x0
                           .text:00401694 68 f1 00 00 00                   push   $0xf1
                           .text:00401699 ff 35 f8 54 40 00                pushl  0x4054f8
                           .text:0040169f ff d6                            call   *%esi
                           .text:004016a1 6a 00                            push   $0x0
                           .text:004016a3 6a 00                            push   $0x0
                           .text:004016a5 68 f1 00 00 00                   push   $0xf1
                           .text:004016aa ff 35 fc 54 40 00                pushl  0x4054fc
                           .text:004016b0 ff d6                            call   *%esi
                           .text:004016b2 e9 98 05 00 00                   jmp    0x00401c4f
                           .text:004016b7 80 3d bf 54 40 00 00             cmpb   $0x0,0x4054bf
                           .text:004016be 0f 84 41 01 00 00                je     0x00401805
                           .text:004016c4 83 3d b0 53 40 00 01             cmpl   $0x1,0x4053b0
                           .text:004016cb c7 05 f0 54 40 00 01 00 00 00    movl   $0x1,0x4054f0
                           .text:004016d5 74 16                            je     0x004016ed
                           .text:004016d7 68 7c 32 40 00                   push   $0x40327c
                           .text:004016dc ff 35 20 57 40 00                pushl  0x405720
                           .text:004016e2 ff d7                            call   *%edi
                           .text:004016e4 50                               push   %eax
                           .text:004016e5 ff 35 a4 53 40 00                pushl  0x4053a4
                           .text:004016eb ff d6                            call   *%esi
                           .text:004016ed 68 fe 00 00 00                   push   $0xfe
                           .text:004016f2 6a 00                            push   $0x0
                           .text:004016f4 68 08 56 40 00                   push   $0x405608
                           .text:004016f9 e8 3a 14 00 00                   call   0x00402b38
                           .text:004016fe 68 fe 00 00 00                   push   $0xfe
                           .text:00401703 6a 00                            push   $0x0
                           .text:00401705 68 30 57 40 00                   push   $0x405730
                           .text:0040170a e8 29 14 00 00                   call   0x00402b38
                           .text:0040170f 68 fe 00 00 00                   push   $0xfe
                           .text:00401714 6a 00                            push   $0x0
                           .text:00401716 68 c0 53 40 00                   push   $0x4053c0
                           .text:0040171b e8 18 14 00 00                   call   0x00402b38
                           .text:00401720 83 c4 24                         add    $0x24,%esp
                           .text:00401723 33 f6                            xor    %esi,%esi
                           .text:00401725 56                               push   %esi
                           .text:00401726 ff d3                            call   *%ebx
                           .text:00401728 66 85 c0                         test   %ax,%ax
                           .text:0040172b 74 19                            je     0x00401746
                           .text:0040172d 80 be 00 55 40 00 00             cmpb   $0x0,0x405500(%esi)
                           .text:00401734 c6 86 08 56 40 00 01             movb   $0x1,0x405608(%esi)
                           .text:0040173b 75 19                            jne    0x00401756
                           .text:0040173d c6 86 30 57 40 00 01             movb   $0x1,0x405730(%esi)
                           .text:00401744 eb 10                            jmp    0x00401756
                           .text:00401746 80 be 00 55 40 00 00             cmpb   $0x0,0x405500(%esi)
                           .text:0040174d 74 07                            je     0x00401756
                           .text:0040174f c6 86 c0 53 40 00 01             movb   $0x1,0x4053c0(%esi)
                           .text:00401756 8a 86 08 56 40 00                mov    0x405608(%esi),%al
                           .text:0040175c 88 86 00 55 40 00                mov    %al,0x405500(%esi)
                           .text:00401762 46                               inc    %esi
                           .text:00401763 81 fe fe 00 00 00                cmp    $0xfe,%esi
                           .text:00401769 7c ba                            jl     0x00401725
                           .text:0040176b 80 3d c1 53 40 00 00             cmpb   $0x0,0x4053c1
                           .text:00401772 8a 0d b6 53 40 00                mov    0x4053b6,%cl
                           .text:00401778 74 10                            je     0x0040178a
                           .text:0040177a 84 c9                            test   %cl,%cl
                           .text:0040177c 75 0c                            jne    0x0040178a
                           .text:0040177e c6 05 b6 53 40 00 01             movb   $0x1,0x4053b6
                           .text:00401785 e9 16 05 00 00                   jmp    0x00401ca0
                           .text:0040178a 33 c0                            xor    %eax,%eax
                           .text:0040178c 0f 1f 40 00                      nopl   0x0(%eax)
                           .text:00401790 80 b8 c0 53 40 00 00             cmpb   $0x0,0x4053c0(%eax)
                           .text:00401797 74 04                            je     0x0040179d
                           .text:00401799 84 c9                            test   %cl,%cl
                           .text:0040179b 75 1a                            jne    0x004017b7
                           .text:0040179d 40                               inc    %eax
                           .text:0040179e 3d fe 00 00 00                   cmp    $0xfe,%eax
                           .text:004017a3 7c eb                            jl     0x00401790
                           .text:004017a5 80 3d bf 54 40 00 00             cmpb   $0x0,0x4054bf
                           .text:004017ac 0f 85 9d 04 00 00                jne    0x00401c4f
                           .text:004017b2 e9 e9 04 00 00                   jmp    0x00401ca0
                           .text:004017b7 6a 0a                            push   $0xa
                           .text:004017b9 6a 04                            push   $0x4
                           .text:004017bb 68 20 50 40 00                   push   $0x405020
                           .text:004017c0 50                               push   %eax
                           .text:004017c1 ff 15 c4 30 40 00                call   *0x4030c4
                           .text:004017c7 83 c4 10                         add    $0x10,%esp
                           .text:004017ca ff 35 ac 53 40 00                pushl  0x4053ac
                           .text:004017d0 ff 15 98 30 40 00                call   *0x403098
                           .text:004017d6 68 20 50 40 00                   push   $0x405020
                           .text:004017db ff 35 28 57 40 00                pushl  0x405728
                           .text:004017e1 ff d7                            call   *%edi
                           .text:004017e3 8b 35 94 30 40 00                mov    0x403094,%esi
                           .text:004017e9 50                               push   %eax
                           .text:004017ea ff 35 a4 53 40 00                pushl  0x4053a4
                           .text:004017f0 ff d6                            call   *%esi
                           .text:004017f2 c6 05 bf 54 40 00 00             movb   $0x0,0x4054bf
                           .text:004017f9 c6 05 b6 53 40 00 00             movb   $0x0,0x4053b6
                           .text:00401800 e9 a1 04 00 00                   jmp    0x00401ca6
                           .text:00401805 68 18 57 40 00                   push   $0x405718
                           .text:0040180a ff 15 08 30 40 00                call   *0x403008
                           .text:00401810 8b 3d 18 57 40 00                mov    0x405718,%edi
                           .text:00401816 8d 45 dc                         lea    -0x24(%ebp),%eax
                           .text:00401819 2b 3d 08 57 40 00                sub    0x405708,%edi
                           .text:0040181f 8b 35 1c 57 40 00                mov    0x40571c,%esi
                           .text:00401825 1b 35 0c 57 40 00                sbb    0x40570c,%esi
                           .text:0040182b 50                               push   %eax
                           .text:0040182c ff 15 20 30 40 00                call   *0x403020
                           .text:00401832 8b d6                            mov    %esi,%edx
                           .text:00401834 8b cf                            mov    %edi,%ecx
                           .text:00401836 e8 f5 16 00 00                   call   0x00402f30
                           .text:0040183b 8b 55 e0                         mov    -0x20(%ebp),%edx
                           .text:0040183e 8b 4d dc                         mov    -0x24(%ebp),%ecx
                           .text:00401841 f2 0f 11 45 e8                   movsd  %xmm0,-0x18(%ebp)
                           .text:00401846 e8 e5 16 00 00                   call   0x00402f30
                           .text:0040184b f2 0f 10 4d e8                   movsd  -0x18(%ebp),%xmm1
                           .text:00401850 f2 0f 5e c8                      divsd  %xmm0,%xmm1
                           .text:00401854 a0 ff 55 40 00                   mov    0x4055ff,%al
                           .text:00401859 8b 35 bc 30 40 00                mov    0x4030bc,%esi
                           .text:0040185f 66 0f 5a c1                      cvtpd2ps %xmm1,%xmm0
                           .text:00401863 f3 0f 11 05 f4 54 40 00          movss  %xmm0,0x4054f4
                           .text:0040186b 84 c0                            test   %al,%al
                           .text:0040186d 75 20                            jne    0x0040188f
                           .text:0040186f 68 20 50 40 00                   push   $0x405020
                           .text:00401874 ff d6                            call   *%esi
                           .text:00401876 83 c4 04                         add    $0x4,%esp
                           .text:00401879 50                               push   %eax
                           .text:0040187a ff d3                            call   *%ebx
                           .text:0040187c 66 85 c0                         test   %ax,%ax
                           .text:0040187f 74 09                            je     0x0040188a
                           .text:00401881 c6 05 ff 55 40 00 01             movb   $0x1,0x4055ff
                           .text:00401888 eb 09                            jmp    0x00401893
                           .text:0040188a a0 ff 55 40 00                   mov    0x4055ff,%al
                           .text:0040188f 3c 01                            cmp    $0x1,%al
                           .text:00401891 75 20                            jne    0x004018b3
                           .text:00401893 68 20 50 40 00                   push   $0x405020
                           .text:00401898 ff d6                            call   *%esi
                           .text:0040189a 83 c4 04                         add    $0x4,%esp
                           .text:0040189d 50                               push   %eax
                           .text:0040189e ff d3                            call   *%ebx
                           .text:004018a0 66 85 c0                         test   %ax,%ax
                           .text:004018a3 75 09                            jne    0x004018ae
                           .text:004018a5 c6 05 ff 55 40 00 02             movb   $0x2,0x4055ff
                           .text:004018ac eb 09                            jmp    0x004018b7
                           .text:004018ae a0 ff 55 40 00                   mov    0x4055ff,%al
                           .text:004018b3 3c 02                            cmp    $0x2,%al
                           .text:004018b5 75 20                            jne    0x004018d7
                           .text:004018b7 68 20 50 40 00                   push   $0x405020
                           .text:004018bc ff d6                            call   *%esi
                           .text:004018be 83 c4 04                         add    $0x4,%esp
                           .text:004018c1 50                               push   %eax
                           .text:004018c2 ff d3                            call   *%ebx
                           .text:004018c4 66 85 c0                         test   %ax,%ax
                           .text:004018c7 74 09                            je     0x004018d2
                           .text:004018c9 c6 05 ff 55 40 00 03             movb   $0x3,0x4055ff
                           .text:004018d0 eb 09                            jmp    0x004018db
                           .text:004018d2 a0 ff 55 40 00                   mov    0x4055ff,%al
                           .text:004018d7 3c 03                            cmp    $0x3,%al
                           .text:004018d9 75 1d                            jne    0x004018f8
                           .text:004018db 68 20 50 40 00                   push   $0x405020
                           .text:004018e0 ff d6                            call   *%esi
                           .text:004018e2 83 c4 04                         add    $0x4,%esp
                           .text:004018e5 50                               push   %eax
                           .text:004018e6 ff d3                            call   *%ebx
                           .text:004018e8 66 f7 d8                         neg    %ax
                           .text:004018eb 1a c0                            sbb    %al,%al
                           .text:004018ed 22 05 ff 55 40 00                and    0x4055ff,%al
                           .text:004018f3 a2 ff 55 40 00                   mov    %al,0x4055ff
                           .text:004018f8 f3 0f 10 05 18 50 40 00          movss  0x405018,%xmm0
                           .text:00401900 f3 0f 59 05 c0 36 40 00          mulss  0x4036c0,%xmm0
                           .text:00401908 f3 0f 10 0d bc 36 40 00          movss  0x4036bc,%xmm1
                           .text:00401910 f3 0f 5e c8                      divss  %xmm0,%xmm1
                           .text:00401914 f3 0f 10 05 f4 54 40 00          movss  0x4054f4,%xmm0
                           .text:0040191c 0f 2f c1                         comiss %xmm1,%xmm0
                           .text:0040191f 0f 86 b5 02 00 00                jbe    0x00401bda
                           .text:00401925 8b 0d bc 53 40 00                mov    0x4053bc,%ecx
                           .text:0040192b 8a 15 b7 53 40 00                mov    0x4053b7,%dl
                           .text:00401931 85 c9                            test   %ecx,%ecx
                           .text:00401933 7e 1d                            jle    0x00401952
                           .text:00401935 39 0d ec 54 40 00                cmp    %ecx,0x4054ec
                           .text:0040193b 7c 15                            jl     0x00401952
                           .text:0040193d 84 d2                            test   %dl,%dl
                           .text:0040193f 74 51                            je     0x00401992
                           .text:00401941 32 c0                            xor    %al,%al
                           .text:00401943 c7 05 ec 54 40 00 00 00 00 00    movl   $0x0,0x4054ec
                           .text:0040194d a2 ff 55 40 00                   mov    %al,0x4055ff
                           .text:00401952 84 d2                            test   %dl,%dl
                           .text:00401954 74 43                            je     0x00401999
                           .text:00401956 3c 02                            cmp    $0x2,%al
                           .text:00401958 73 5a                            jae    0x004019b4
                           .text:0040195a 80 3d 1c 50 40 00 00             cmpb   $0x0,0x40501c
                           .text:00401961 0f 85 03 02 00 00                jne    0x00401b6a
                           .text:00401967 a1 24 57 40 00                   mov    0x405724,%eax
                           .text:0040196c 83 e8 00                         sub    $0x0,%eax
                           .text:0040196f 0f 84 af 01 00 00                je     0x00401b24
                           .text:00401975 83 e8 01                         sub    $0x1,%eax
                           .text:00401978 0f 84 9a 01 00 00                je     0x00401b18
                           .text:0040197e 83 e8 01                         sub    $0x1,%eax
                           .text:00401981 0f 85 ad 01 00 00                jne    0x00401b34
                           .text:00401987 50                               push   %eax
                           .text:00401988 50                               push   %eax
                           .text:00401989 50                               push   %eax
                           .text:0040198a 50                               push   %eax
                           .text:0040198b 6a 10                            push   $0x10
                           .text:0040198d e9 9c 01 00 00                   jmp    0x00401b2e
                           .text:00401992 c6 05 fe 55 40 00 01             movb   $0x1,0x4055fe
                           .text:00401999 68 20 50 40 00                   push   $0x405020
                           .text:0040199e ff d6                            call   *%esi
                           .text:004019a0 83 c4 04                         add    $0x4,%esp
                           .text:004019a3 50                               push   %eax
                           .text:004019a4 ff d3                            call   *%ebx
                           .text:004019a6 66 85 c0                         test   %ax,%ax
                           .text:004019a9 74 af                            je     0x0040195a
                           .text:004019ab 80 3d fe 55 40 00 00             cmpb   $0x0,0x4055fe
                           .text:004019b2 75 a6                            jne    0x0040195a
                           .text:004019b4 83 3d b0 53 40 00 02             cmpl   $0x2,0x4053b0
                           .text:004019bb 8b 35 50 30 40 00                mov    0x403050,%esi
                           .text:004019c1 c7 05 f0 54 40 00 02 00 00 00    movl   $0x2,0x4054f0
                           .text:004019cb 74 1e                            je     0x004019eb
                           .text:004019cd 68 9c 32 40 00                   push   $0x40329c
                           .text:004019d2 ff 35 20 57 40 00                pushl  0x405720
                           .text:004019d8 ff d6                            call   *%esi
                           .text:004019da 8b 3d 94 30 40 00                mov    0x403094,%edi
                           .text:004019e0 50                               push   %eax
                           .text:004019e1 ff 35 a4 53 40 00                pushl  0x4053a4
                           .text:004019e7 ff d7                            call   *%edi
                           .text:004019e9 eb 06                            jmp    0x004019f1
                           .text:004019eb 8b 3d 94 30 40 00                mov    0x403094,%edi
                           .text:004019f1 6a 0b                            push   $0xb
                           .text:004019f3 8d 45 f0                         lea    -0x10(%ebp),%eax
                           .text:004019f6 50                               push   %eax
                           .text:004019f7 ff 35 a8 53 40 00                pushl  0x4053a8
                           .text:004019fd ff d6                            call   *%esi
                           .text:004019ff 50                               push   %eax
                           .text:00401a00 ff 35 a4 53 40 00                pushl  0x4053a4
                           .text:00401a06 ff 15 54 30 40 00                call   *0x403054
                           .text:00401a0c 8d 45 f0                         lea    -0x10(%ebp),%eax
                           .text:00401a0f 50                               push   %eax
                           .text:00401a10 ff 15 bc 30 40 00                call   *0x4030bc
                           .text:00401a16 83 c4 04                         add    $0x4,%esp
                           .text:00401a19 80 3d 1c 50 40 00 00             cmpb   $0x0,0x40501c
                           .text:00401a20 74 68                            je     0x00401a8a
                           .text:00401a22 85 c0                            test   %eax,%eax
                           .text:00401a24 7f 68                            jg     0x00401a8e
                           .text:00401a26 a1 24 57 40 00                   mov    0x405724,%eax
                           .text:00401a2b 83 e8 00                         sub    $0x0,%eax
                           .text:00401a2e 74 3e                            je     0x00401a6e
                           .text:00401a30 83 e8 01                         sub    $0x1,%eax
                           .text:00401a33 74 1d                            je     0x00401a52
                           .text:00401a35 83 e8 01                         sub    $0x1,%eax
                           .text:00401a38 75 44                            jne    0x00401a7e
                           .text:00401a3a 50                               push   %eax
                           .text:00401a3b 50                               push   %eax
                           .text:00401a3c 50                               push   %eax
                           .text:00401a3d 50                               push   %eax
                           .text:00401a3e 6a 08                            push   $0x8
                           .text:00401a40 ff 15 8c 30 40 00                call   *0x40308c
                           .text:00401a46 c6 05 1c 50 40 00 00             movb   $0x0,0x40501c
                           .text:00401a4d e9 72 01 00 00                   jmp    0x00401bc4
                           .text:00401a52 6a 00                            push   $0x0
                           .text:00401a54 6a 00                            push   $0x0
                           .text:00401a56 6a 00                            push   $0x0
                           .text:00401a58 6a 00                            push   $0x0
                           .text:00401a5a 6a 20                            push   $0x20
                           .text:00401a5c ff 15 8c 30 40 00                call   *0x40308c
                           .text:00401a62 c6 05 1c 50 40 00 00             movb   $0x0,0x40501c
                           .text:00401a69 e9 56 01 00 00                   jmp    0x00401bc4
                           .text:00401a6e 6a 00                            push   $0x0
                           .text:00401a70 6a 00                            push   $0x0
                           .text:00401a72 6a 00                            push   $0x0
                           .text:00401a74 6a 00                            push   $0x0
                           .text:00401a76 6a 02                            push   $0x2
                           .text:00401a78 ff 15 8c 30 40 00                call   *0x40308c
                           .text:00401a7e c6 05 1c 50 40 00 00             movb   $0x0,0x40501c
                           .text:00401a85 e9 3a 01 00 00                   jmp    0x00401bc4
                           .text:00401a8a 85 c0                            test   %eax,%eax
                           .text:00401a8c 7e 0e                            jle    0x00401a9c
                           .text:00401a8e 6a 00                            push   $0x0
                           .text:00401a90 6a 00                            push   $0x0
                           .text:00401a92 50                               push   %eax
                           .text:00401a93 50                               push   %eax
                           .text:00401a94 ff 15 60 30 40 00                call   *0x403060
                           .text:00401a9a eb 38                            jmp    0x00401ad4
                           .text:00401a9c a1 24 57 40 00                   mov    0x405724,%eax
                           .text:00401aa1 83 e8 00                         sub    $0x0,%eax
                           .text:00401aa4 74 1e                            je     0x00401ac4
                           .text:00401aa6 83 e8 01                         sub    $0x1,%eax
                           .text:00401aa9 74 0d                            je     0x00401ab8
                           .text:00401aab 83 e8 01                         sub    $0x1,%eax
                           .text:00401aae 75 24                            jne    0x00401ad4
                           .text:00401ab0 50                               push   %eax
                           .text:00401ab1 50                               push   %eax
                           .text:00401ab2 50                               push   %eax
                           .text:00401ab3 50                               push   %eax
                           .text:00401ab4 6a 10                            push   $0x10
                           .text:00401ab6 eb 16                            jmp    0x00401ace
                           .text:00401ab8 6a 00                            push   $0x0
                           .text:00401aba 6a 00                            push   $0x0
                           .text:00401abc 6a 00                            push   $0x0
                           .text:00401abe 6a 00                            push   $0x0
                           .text:00401ac0 6a 40                            push   $0x40
                           .text:00401ac2 eb 0a                            jmp    0x00401ace
                           .text:00401ac4 6a 00                            push   $0x0
                           .text:00401ac6 6a 00                            push   $0x0
                           .text:00401ac8 6a 00                            push   $0x0
                           .text:00401aca 6a 00                            push   $0x0
                           .text:00401acc 6a 04                            push   $0x4
                           .text:00401ace ff 15 8c 30 40 00                call   *0x40308c
                           .text:00401ad4 a1 b8 53 40 00                   mov    0x4053b8,%eax
                           .text:00401ad9 8d 4d f0                         lea    -0x10(%ebp),%ecx
                           .text:00401adc ff 05 ec 54 40 00                incl   0x4054ec
                           .text:00401ae2 40                               inc    %eax
                           .text:00401ae3 6a 0a                            push   $0xa
                           .text:00401ae5 6a 0c                            push   $0xc
                           .text:00401ae7 51                               push   %ecx
                           .text:00401ae8 50                               push   %eax
                           .text:00401ae9 c6 05 1c 50 40 00 01             movb   $0x1,0x40501c
                           .text:00401af0 a3 b8 53 40 00                   mov    %eax,0x4053b8
                           .text:00401af5 ff 15 c4 30 40 00                call   *0x4030c4
                           .text:00401afb 83 c4 10                         add    $0x10,%esp
                           .text:00401afe 8d 45 f0                         lea    -0x10(%ebp),%eax
                           .text:00401b01 50                               push   %eax
                           .text:00401b02 ff 35 ac 53 40 00                pushl  0x4053ac
                           .text:00401b08 ff d6                            call   *%esi
                           .text:00401b0a 50                               push   %eax
                           .text:00401b0b ff 35 a4 53 40 00                pushl  0x4053a4
                           .text:00401b11 ff d7                            call   *%edi
                           .text:00401b13 e9 ac 00 00 00                   jmp    0x00401bc4
                           .text:00401b18 6a 00                            push   $0x0
                           .text:00401b1a 6a 00                            push   $0x0
                           .text:00401b1c 6a 00                            push   $0x0
                           .text:00401b1e 6a 00                            push   $0x0
                           .text:00401b20 6a 40                            push   $0x40
                           .text:00401b22 eb 0a                            jmp    0x00401b2e
                           .text:00401b24 6a 00                            push   $0x0
                           .text:00401b26 6a 00                            push   $0x0
                           .text:00401b28 6a 00                            push   $0x0
                           .text:00401b2a 6a 00                            push   $0x0
                           .text:00401b2c 6a 04                            push   $0x4
                           .text:00401b2e ff 15 8c 30 40 00                call   *0x40308c
                           .text:00401b34 a1 b8 53 40 00                   mov    0x4053b8,%eax
                           .text:00401b39 8d 4d f0                         lea    -0x10(%ebp),%ecx
                           .text:00401b3c ff 05 ec 54 40 00                incl   0x4054ec
                           .text:00401b42 40                               inc    %eax
                           .text:00401b43 6a 0a                            push   $0xa
                           .text:00401b45 6a 0c                            push   $0xc
                           .text:00401b47 51                               push   %ecx
                           .text:00401b48 50                               push   %eax
                           .text:00401b49 c6 05 1c 50 40 00 01             movb   $0x1,0x40501c
                           .text:00401b50 a3 b8 53 40 00                   mov    %eax,0x4053b8
                           .text:00401b55 ff 15 c4 30 40 00                call   *0x4030c4
                           .text:00401b5b 83 c4 10                         add    $0x10,%esp
                           .text:00401b5e 8d 45 f0                         lea    -0x10(%ebp),%eax
                           .text:00401b61 50                               push   %eax
                           .text:00401b62 ff 35 ac 53 40 00                pushl  0x4053ac
                           .text:00401b68 eb 44                            jmp    0x00401bae
                           .text:00401b6a 68 20 50 40 00                   push   $0x405020
                           .text:00401b6f c7 05 f0 54 40 00 00 00 00 00    movl   $0x0,0x4054f0
                           .text:00401b79 c7 05 ec 54 40 00 00 00 00 00    movl   $0x0,0x4054ec
                           .text:00401b83 ff d6                            call   *%esi
                           .text:00401b85 83 c4 04                         add    $0x4,%esp
                           .text:00401b88 50                               push   %eax
                           .text:00401b89 ff d3                            call   *%ebx
                           .text:00401b8b 66 f7 d8                         neg    %ax
                           .text:00401b8e 1a c0                            sbb    %al,%al
                           .text:00401b90 20 05 fe 55 40 00                and    %al,0x4055fe
                           .text:00401b96 a1 f0 54 40 00                   mov    0x4054f0,%eax
                           .text:00401b9b 3b 05 b0 53 40 00                cmp    0x4053b0,%eax
                           .text:00401ba1 74 21                            je     0x00401bc4
                           .text:00401ba3 68 84 31 40 00                   push   $0x403184
                           .text:00401ba8 ff 35 20 57 40 00                pushl  0x405720
                           .text:00401bae 8b 35 50 30 40 00                mov    0x403050,%esi
                           .text:00401bb4 ff d6                            call   *%esi
                           .text:00401bb6 50                               push   %eax
                           .text:00401bb7 ff 35 a4 53 40 00                pushl  0x4053a4
                           .text:00401bbd a1 94 30 40 00                   mov    0x403094,%eax
                           .text:00401bc2 ff d0                            call   *%eax
                           .text:00401bc4 a1 18 57 40 00                   mov    0x405718,%eax
                           .text:00401bc9 a3 08 57 40 00                   mov    %eax,0x405708
                           .text:00401bce a1 1c 57 40 00                   mov    0x40571c,%eax
                           .text:00401bd3 a3 0c 57 40 00                   mov    %eax,0x40570c
                           .text:00401bd8 eb 08                            jmp    0x00401be2
                           .text:00401bda 6a 01                            push   $0x1
                           .text:00401bdc ff 15 3c 30 40 00                call   *0x40303c
                           .text:00401be2 8b 3d 50 30 40 00                mov    0x403050,%edi
                           .text:00401be8 8d 45 f0                         lea    -0x10(%ebp),%eax
                           .text:00401beb 6a 0b                            push   $0xb
                           .text:00401bed 50                               push   %eax
                           .text:00401bee ff 35 a0 53 40 00                pushl  0x4053a0
                           .text:00401bf4 ff d7                            call   *%edi
                           .text:00401bf6 8b 35 54 30 40 00                mov    0x403054,%esi
                           .text:00401bfc 50                               push   %eax
                           .text:00401bfd ff 35 a4 53 40 00                pushl  0x4053a4
                           .text:00401c03 ff d6                            call   *%esi
                           .text:00401c05 8d 45 f0                         lea    -0x10(%ebp),%eax
                           .text:00401c08 50                               push   %eax
                           .text:00401c09 ff 15 c0 30 40 00                call   *0x4030c0
                           .text:00401c0f 83 c4 04                         add    $0x4,%esp
                           .text:00401c12 8d 45 f0                         lea    -0x10(%ebp),%eax
                           .text:00401c15 d9 1d 18 50 40 00                fstps  0x405018
                           .text:00401c1b 6a 0b                            push   $0xb
                           .text:00401c1d 50                               push   %eax
                           .text:00401c1e ff 35 04 56 40 00                pushl  0x405604
                           .text:00401c24 ff d7                            call   *%edi
                           .text:00401c26 50                               push   %eax
                           .text:00401c27 ff 35 a4 53 40 00                pushl  0x4053a4
                           .text:00401c2d ff d6                            call   *%esi
                           .text:00401c2f 8d 45 f0                         lea    -0x10(%ebp),%eax
                           .text:00401c32 50                               push   %eax
                           .text:00401c33 ff 15 c0 30 40 00                call   *0x4030c0
                           .text:00401c39 d9 5d ec                         fstps  -0x14(%ebp)
                           .text:00401c3c d9 45 ec                         flds   -0x14(%ebp)
                           .text:00401c3f 83 c4 04                         add    $0x4,%esp
                           .text:00401c42 d9 5d ec                         fstps  -0x14(%ebp)
                           .text:00401c45 f3 0f 2c 45 ec                   cvttss2si -0x14(%ebp),%eax
                           .text:00401c4a a3 bc 53 40 00                   mov    %eax,0x4053bc
                           .text:00401c4f 8b 35 80 30 40 00                mov    0x403080,%esi
                           .text:00401c55 8d 45 c0                         lea    -0x40(%ebp),%eax
                           .text:00401c58 6a 01                            push   $0x1
                           .text:00401c5a 6a 00                            push   $0x0
                           .text:00401c5c 6a 00                            push   $0x0
                           .text:00401c5e 6a 00                            push   $0x0
                           .text:00401c60 50                               push   %eax
                           .text:00401c61 ff d6                            call   *%esi
                           .text:00401c63 85 c0                            test   %eax,%eax
                           .text:00401c65 74 2f                            je     0x00401c96
                           .text:00401c67 66 0f 1f 84 00 00 00 00 00       nopw   0x0(%eax,%eax,1)
                           .text:00401c70 8d 45 c0                         lea    -0x40(%ebp),%eax
                           .text:00401c73 50                               push   %eax
                           .text:00401c74 ff 15 9c 30 40 00                call   *0x40309c
                           .text:00401c7a 8d 45 c0                         lea    -0x40(%ebp),%eax
                           .text:00401c7d 50                               push   %eax
                           .text:00401c7e ff 15 68 30 40 00                call   *0x403068
                           .text:00401c84 6a 01                            push   $0x1
                           .text:00401c86 6a 00                            push   $0x0
                           .text:00401c88 6a 00                            push   $0x0
                           .text:00401c8a 6a 00                            push   $0x0
                           .text:00401c8c 8d 45 c0                         lea    -0x40(%ebp),%eax
                           .text:00401c8f 50                               push   %eax
                           .text:00401c90 ff d6                            call   *%esi
                           .text:00401c92 85 c0                            test   %eax,%eax
                           .text:00401c94 75 da                            jne    0x00401c70
                           .text:00401c96 a1 f0 54 40 00                   mov    0x4054f0,%eax
                           .text:00401c9b a3 b0 53 40 00                   mov    %eax,0x4053b0
                           .text:00401ca0 8b 35 94 30 40 00                mov    0x403094,%esi
                           .text:00401ca6 80 3d b4 53 40 00 00             cmpb   $0x0,0x4053b4
                           .text:00401cad 0f 84 8d f8 ff ff                je     0x00401540
                           .text:00401cb3 5f                               pop    %edi
                           .text:00401cb4 5b                               pop    %ebx
                           .text:00401cb5 8b 4d fc                         mov    -0x4(%ebp),%ecx
                           .text:00401cb8 33 c0                            xor    %eax,%eax
                           .text:00401cba 33 cd                            xor    %ebp,%ecx
                           .text:00401cbc 5e                               pop    %esi
                           .text:00401cbd e8 0e 03 00 00                   call   0x00401fd0
                           .text:00401cc2 8b e5                            mov    %ebp,%esp
                           .text:00401cc4 5d                               pop    %ebp
                           .text:00401cc5 c2 10 00                         ret    $0x10
                           .text:00401cc8 cc                               int3   
                           .text:00401cc9 cc                               int3   
                           .text:00401cca cc                               int3   
                           .text:00401ccb cc                               int3   
                           .text:00401ccc cc                               int3   
                           .text:00401ccd cc                               int3   
                           .text:00401cce cc                               int3   
                           .text:00401ccf cc                               int3   
                           .text:00401cd0 55                               push   %ebp
                           .text:00401cd1 8b ec                            mov    %esp,%ebp
                           .text:00401cd3 83 e4 f8                         and    $0xfffffff8,%esp
                           .text:00401cd6 83 ec 4c                         sub    $0x4c,%esp
                           .text:00401cd9 a1 04 50 40 00                   mov    0x405004,%eax
                           .text:00401cde 33 c4                            xor    %esp,%eax
                           .text:00401ce0 89 44 24 48                      mov    %eax,0x48(%esp)
                           .text:00401ce4 8b 45 0c                         mov    0xc(%ebp),%eax
                           .text:00401ce7 56                               push   %esi
                           .text:00401ce8 8b 75 08                         mov    0x8(%ebp),%esi
                           .text:00401ceb 83 f8 0f                         cmp    $0xf,%eax
                           .text:00401cee 0f 87 a7 00 00 00                ja     0x00401d9b
                           .text:00401cf4 74 79                            je     0x00401d6f
                           .text:00401cf6 8d 48 ff                         lea    -0x1(%eax),%ecx
                           .text:00401cf9 83 f9 04                         cmp    $0x4,%ecx
                           .text:00401cfc 0f 87 a0 00 00 00                ja     0x00401da2
                           .text:00401d02 ff 24 8d bc 1f 40 00             jmp    *0x401fbc(,%ecx,4)
                           .text:00401d09 6a 01                            push   $0x1
                           .text:00401d0b 6a 00                            push   $0x0
                           .text:00401d0d ff 35 a4 53 40 00                pushl  0x4053a4
                           .text:00401d13 ff 15 74 30 40 00                call   *0x403074
                           .text:00401d19 33 c0                            xor    %eax,%eax
                           .text:00401d1b 5e                               pop    %esi
                           .text:00401d1c 8b 4c 24 48                      mov    0x48(%esp),%ecx
                           .text:00401d20 33 cc                            xor    %esp,%ecx
                           .text:00401d22 e8 a9 02 00 00                   call   0x00401fd0
                           .text:00401d27 8b e5                            mov    %ebp,%esp
                           .text:00401d29 5d                               pop    %ebp
                           .text:00401d2a c2 10 00                         ret    $0x10
                           .text:00401d2d 6a 00                            push   $0x0
                           .text:00401d2f c6 05 b4 53 40 00 01             movb   $0x1,0x4053b4
                           .text:00401d36 ff 15 7c 30 40 00                call   *0x40307c
                           .text:00401d3c 33 c0                            xor    %eax,%eax
                           .text:00401d3e 5e                               pop    %esi
                           .text:00401d3f 8b 4c 24 48                      mov    0x48(%esp),%ecx
                           .text:00401d43 33 cc                            xor    %esp,%ecx
                           .text:00401d45 e8 86 02 00 00                   call   0x00401fd0
                           .text:00401d4a 8b e5                            mov    %ebp,%esp
                           .text:00401d4c 5d                               pop    %ebp
                           .text:00401d4d c2 10 00                         ret    $0x10
                           .text:00401d50 6a 01                            push   $0x1
                           .text:00401d52 6a 00                            push   $0x0
                           .text:00401d54 56                               push   %esi
                           .text:00401d55 ff 15 74 30 40 00                call   *0x403074
                           .text:00401d5b 33 c0                            xor    %eax,%eax
                           .text:00401d5d 5e                               pop    %esi
                           .text:00401d5e 8b 4c 24 48                      mov    0x48(%esp),%ecx
                           .text:00401d62 33 cc                            xor    %esp,%ecx
                           .text:00401d64 e8 67 02 00 00                   call   0x00401fd0
                           .text:00401d69 8b e5                            mov    %ebp,%esp
                           .text:00401d6b 5d                               pop    %ebp
                           .text:00401d6c c2 10 00                         ret    $0x10
                           .text:00401d6f 8d 44 24 08                      lea    0x8(%esp),%eax
                           .text:00401d73 50                               push   %eax
                           .text:00401d74 56                               push   %esi
                           .text:00401d75 ff 15 84 30 40 00                call   *0x403084
                           .text:00401d7b 8d 44 24 08                      lea    0x8(%esp),%eax
                           .text:00401d7f 50                               push   %eax
                           .text:00401d80 56                               push   %esi
                           .text:00401d81 ff 15 a0 30 40 00                call   *0x4030a0
                           .text:00401d87 33 c0                            xor    %eax,%eax
                           .text:00401d89 5e                               pop    %esi
                           .text:00401d8a 8b 4c 24 48                      mov    0x48(%esp),%ecx
                           .text:00401d8e 33 cc                            xor    %esp,%ecx
                           .text:00401d90 e8 3b 02 00 00                   call   0x00401fd0
                           .text:00401d95 8b e5                            mov    %ebp,%esp
                           .text:00401d97 5d                               pop    %ebp
                           .text:00401d98 c2 10 00                         ret    $0x10
                           .text:00401d9b 3d 11 01 00 00                   cmp    $0x111,%eax
                           .text:00401da0 74 20                            je     0x00401dc2
                           .text:00401da2 ff 75 14                         pushl  0x14(%ebp)
                           .text:00401da5 ff 75 10                         pushl  0x10(%ebp)
                           .text:00401da8 50                               push   %eax
                           .text:00401da9 56                               push   %esi
                           .text:00401daa ff 15 6c 30 40 00                call   *0x40306c
                           .text:00401db0 5e                               pop    %esi
                           .text:00401db1 8b 4c 24 48                      mov    0x48(%esp),%ecx
                           .text:00401db5 33 cc                            xor    %esp,%ecx
                           .text:00401db7 e8 14 02 00 00                   call   0x00401fd0
                           .text:00401dbc 8b e5                            mov    %ebp,%esp
                           .text:00401dbe 5d                               pop    %ebp
                           .text:00401dbf c2 10 00                         ret    $0x10
                           .text:00401dc2 0f b7 45 10                      movzwl 0x10(%ebp),%eax
                           .text:00401dc6 3d 70 17 00 00                   cmp    $0x1770,%eax
                           .text:00401dcb 0f 8f de 00 00 00                jg     0x00401eaf
                           .text:00401dd1 0f 84 9c 00 00 00                je     0x00401e73
                           .text:00401dd7 3d e8 03 00 00                   cmp    $0x3e8,%eax
                           .text:00401ddc 74 59                            je     0x00401e37
                           .text:00401dde 3d d0 07 00 00                   cmp    $0x7d0,%eax
                           .text:00401de3 74 37                            je     0x00401e1c
                           .text:00401de5 3d 88 13 00 00                   cmp    $0x1388,%eax
                           .text:00401dea 0f 85 b6 01 00 00                jne    0x00401fa6
                           .text:00401df0 6a 00                            push   $0x0
                           .text:00401df2 68 e4 31 40 00                   push   $0x4031e4
                           .text:00401df7 68 b0 32 40 00                   push   $0x4032b0
                           .text:00401dfc ff 35 a4 53 40 00                pushl  0x4053a4
                           .text:00401e02 ff 15 4c 30 40 00                call   *0x40304c
                           .text:00401e08 33 c0                            xor    %eax,%eax
                           .text:00401e0a 5e                               pop    %esi
                           .text:00401e0b 8b 4c 24 48                      mov    0x48(%esp),%ecx
                           .text:00401e0f 33 cc                            xor    %esp,%ecx
                           .text:00401e11 e8 ba 01 00 00                   call   0x00401fd0
                           .text:00401e16 8b e5                            mov    %ebp,%esp
                           .text:00401e18 5d                               pop    %ebp
                           .text:00401e19 c2 10 00                         ret    $0x10
                           .text:00401e1c c6 05 ff 55 40 00 00             movb   $0x0,0x4055ff
                           .text:00401e23 33 c0                            xor    %eax,%eax
                           .text:00401e25 5e                               pop    %esi
                           .text:00401e26 8b 4c 24 48                      mov    0x48(%esp),%ecx
                           .text:00401e2a 33 cc                            xor    %esp,%ecx
                           .text:00401e2c e8 9f 01 00 00                   call   0x00401fd0
                           .text:00401e31 8b e5                            mov    %ebp,%esp
                           .text:00401e33 5d                               pop    %ebp
                           .text:00401e34 c2 10 00                         ret    $0x10
                           .text:00401e37 83 3d f0 54 40 00 02             cmpl   $0x2,0x4054f0
                           .text:00401e3e 0f 84 62 01 00 00                je     0x00401fa6
                           .text:00401e44 80 3d bf 54 40 00 00             cmpb   $0x0,0x4054bf
                           .text:00401e4b 0f 85 55 01 00 00                jne    0x00401fa6
                           .text:00401e51 c6 05 ff 55 40 00 00             movb   $0x0,0x4055ff
                           .text:00401e58 33 c0                            xor    %eax,%eax
                           .text:00401e5a c6 05 bf 54 40 00 01             movb   $0x1,0x4054bf
                           .text:00401e61 5e                               pop    %esi
                           .text:00401e62 8b 4c 24 48                      mov    0x48(%esp),%ecx
                           .text:00401e66 33 cc                            xor    %esp,%ecx
                           .text:00401e68 e8 63 01 00 00                   call   0x00401fd0
                           .text:00401e6d 8b e5                            mov    %ebp,%esp
                           .text:00401e6f 5d                               pop    %ebp
                           .text:00401e70 c2 10 00                         ret    $0x10
                           .text:00401e73 83 3d f0 54 40 00 02             cmpl   $0x2,0x4054f0
                           .text:00401e7a 0f 84 26 01 00 00                je     0x00401fa6
                           .text:00401e80 80 3d b5 53 40 00 00             cmpb   $0x0,0x4053b5
                           .text:00401e87 0f 85 19 01 00 00                jne    0x00401fa6
                           .text:00401e8d c6 05 ff 55 40 00 00             movb   $0x0,0x4055ff
                           .text:00401e94 33 c0                            xor    %eax,%eax
                           .text:00401e96 c6 05 b5 53 40 00 01             movb   $0x1,0x4053b5
                           .text:00401e9d 5e                               pop    %esi
                           .text:00401e9e 8b 4c 24 48                      mov    0x48(%esp),%ecx
                           .text:00401ea2 33 cc                            xor    %esp,%ecx
                           .text:00401ea4 e8 27 01 00 00                   call   0x00401fd0
                           .text:00401ea9 8b e5                            mov    %ebp,%esp
                           .text:00401eab 5d                               pop    %ebp
                           .text:00401eac c2 10 00                         ret    $0x10
                           .text:00401eaf 3d 58 1b 00 00                   cmp    $0x1b58,%eax
                           .text:00401eb4 0f 84 a8 00 00 00                je     0x00401f62
                           .text:00401eba 3d 40 1f 00 00                   cmp    $0x1f40,%eax
                           .text:00401ebf 0f 85 e1 00 00 00                jne    0x00401fa6
                           .text:00401ec5 68 78 31 40 00                   push   $0x403178
                           .text:00401eca ff 35 a8 53 40 00                pushl  0x4053a8
                           .text:00401ed0 ff 15 50 30 40 00                call   *0x403050
                           .text:00401ed6 50                               push   %eax
                           .text:00401ed7 ff 35 a4 53 40 00                pushl  0x4053a4
                           .text:00401edd ff 15 94 30 40 00                call   *0x403094
                           .text:00401ee3 8b 45 14                         mov    0x14(%ebp),%eax
                           .text:00401ee6 c7 05 24 57 40 00 00 00 00 00    movl   $0x0,0x405724
                           .text:00401ef0 3b 05 10 57 40 00                cmp    0x405710,%eax
                           .text:00401ef6 75 1e                            jne    0x00401f16
                           .text:00401ef8 c7 05 24 57 40 00 00 00 00 00    movl   $0x0,0x405724
                           .text:00401f02 33 c0                            xor    %eax,%eax
                           .text:00401f04 5e                               pop    %esi
                           .text:00401f05 8b 4c 24 48                      mov    0x48(%esp),%ecx
                           .text:00401f09 33 cc                            xor    %esp,%ecx
                           .text:00401f0b e8 c0 00 00 00                   call   0x00401fd0
                           .text:00401f10 8b e5                            mov    %ebp,%esp
                           .text:00401f12 5d                               pop    %ebp
                           .text:00401f13 c2 10 00                         ret    $0x10
                           .text:00401f16 3b 05 f8 54 40 00                cmp    0x4054f8,%eax
                           .text:00401f1c 75 1e                            jne    0x00401f3c
                           .text:00401f1e c7 05 24 57 40 00 01 00 00 00    movl   $0x1,0x405724
                           .text:00401f28 33 c0                            xor    %eax,%eax
                           .text:00401f2a 5e                               pop    %esi
                           .text:00401f2b 8b 4c 24 48                      mov    0x48(%esp),%ecx
                           .text:00401f2f 33 cc                            xor    %esp,%ecx
                           .text:00401f31 e8 9a 00 00 00                   call   0x00401fd0
                           .text:00401f36 8b e5                            mov    %ebp,%esp
                           .text:00401f38 5d                               pop    %ebp
                           .text:00401f39 c2 10 00                         ret    $0x10
                           .text:00401f3c 3b 05 fc 54 40 00                cmp    0x4054fc,%eax
                           .text:00401f42 75 62                            jne    0x00401fa6
                           .text:00401f44 c7 05 24 57 40 00 02 00 00 00    movl   $0x2,0x405724
                           .text:00401f4e 33 c0                            xor    %eax,%eax
                           .text:00401f50 5e                               pop    %esi
                           .text:00401f51 8b 4c 24 48                      mov    0x48(%esp),%ecx
                           .text:00401f55 33 cc                            xor    %esp,%ecx
                           .text:00401f57 e8 74 00 00 00                   call   0x00401fd0
                           .text:00401f5c 8b e5                            mov    %ebp,%esp
                           .text:00401f5e 5d                               pop    %ebp
                           .text:00401f5f c2 10 00                         ret    $0x10
                           .text:00401f62 8b 4d 14                         mov    0x14(%ebp),%ecx
                           .text:00401f65 c6 05 ff 55 40 00 00             movb   $0x0,0x4055ff
                           .text:00401f6c 3b 0d 14 57 40 00                cmp    0x405714,%ecx
                           .text:00401f72 75 1b                            jne    0x00401f8f
                           .text:00401f74 c6 05 b7 53 40 00 01             movb   $0x1,0x4053b7
                           .text:00401f7b 33 c0                            xor    %eax,%eax
                           .text:00401f7d 5e                               pop    %esi
                           .text:00401f7e 8b 4c 24 48                      mov    0x48(%esp),%ecx
                           .text:00401f82 33 cc                            xor    %esp,%ecx
                           .text:00401f84 e8 47 00 00 00                   call   0x00401fd0
                           .text:00401f89 8b e5                            mov    %ebp,%esp
                           .text:00401f8b 5d                               pop    %ebp
                           .text:00401f8c c2 10 00                         ret    $0x10
                           .text:00401f8f 0f b6 05 b7 53 40 00             movzbl 0x4053b7,%eax
                           .text:00401f96 33 d2                            xor    %edx,%edx
                           .text:00401f98 3b 0d e8 54 40 00                cmp    0x4054e8,%ecx
                           .text:00401f9e 0f 44 c2                         cmove  %edx,%eax
                           .text:00401fa1 a2 b7 53 40 00                   mov    %al,0x4053b7
                           .text:00401fa6 8b 4c 24 4c                      mov    0x4c(%esp),%ecx
                           .text:00401faa 33 c0                            xor    %eax,%eax
                           .text:00401fac 5e                               pop    %esi
                           .text:00401fad 33 cc                            xor    %esp,%ecx
                           .text:00401faf e8 1c 00 00 00                   call   0x00401fd0
                           .text:00401fb4 8b e5                            mov    %ebp,%esp
                           .text:00401fb6 5d                               pop    %ebp
                           .text:00401fb7 c2 10 00                         ret    $0x10
                           .text:00401fba 66 90                            xchg   %ax,%ax
                           .text:00401fbc 09 1d 40 00 2d 1d                or     %ebx,0x1d2d0040
                           .text:00401fc2 40                               inc    %eax
                           .text:00401fc3 00 50 1d                         add    %dl,0x1d(%eax)
                           .text:00401fc6 40                               inc    %eax
                           .text:00401fc7 00 a2 1d 40 00 09                add    %ah,0x900401d(%edx)
                           .text:00401fcd 1d 40 00 3b 0d                   sbb    $0xd3b0040,%eax
                           .text:00401fd2 04 50                            add    $0x50,%al
                           .text:00401fd4 40                               inc    %eax
                           .text:00401fd5 00 f2                            add    %dh,%dl
                           .text:00401fd7 75 02                            jne    0x00401fdb
                           .text:00401fd9 f2 c3                            bnd ret 
                           .text:00401fdb f2 e9 5d 02 00 00                bnd jmp 0x0040223e
                           .text:00401fe1 56                               push   %esi
                           .text:00401fe2 6a 02                            push   $0x2
                           .text:00401fe4 e8 61 0b 00 00                   call   0x00402b4a
                           .text:00401fe9 e8 56 06 00 00                   call   0x00402644
                           .text:00401fee 50                               push   %eax
                           .text:00401fef e8 8c 0b 00 00                   call   0x00402b80
                           .text:00401ff4 e8 ab 0b 00 00                   call   0x00402ba4
                           .text:00401ff9 8b f0                            mov    %eax,%esi
                           .text:00401ffb e8 4a 06 00 00                   call   0x0040264a
                           .text:00402000 6a 01                            push   $0x1
                           .text:00402002 89 06                            mov    %eax,(%esi)
                           .text:00402004 e8 e2 03 00 00                   call   0x004023eb
                           .text:00402009 83 c4 0c                         add    $0xc,%esp
                           .text:0040200c 5e                               pop    %esi
                           .text:0040200d 84 c0                            test   %al,%al
                           .text:0040200f 74 63                            je     0x00402074
                           .text:00402011 db e2                            fnclex 
                           .text:00402013 e8 82 08 00 00                   call   0x0040289a
                           .text:00402018 68 c5 28 40 00                   push   $0x4028c5
                           .text:0040201d e8 6d 05 00 00                   call   0x0040258f
                           .text:00402022 e8 19 06 00 00                   call   0x00402640
                           .text:00402027 50                               push   %eax
                           .text:00402028 e8 29 0b 00 00                   call   0x00402b56
                           .text:0040202d 59                               pop    %ecx
                           .text:0040202e 59                               pop    %ecx
                           .text:0040202f 85 c0                            test   %eax,%eax
                           .text:00402031 75 41                            jne    0x00402074
                           .text:00402033 e8 15 06 00 00                   call   0x0040264d
                           .text:00402038 e8 66 06 00 00                   call   0x004026a3
                           .text:0040203d 85 c0                            test   %eax,%eax
                           .text:0040203f 74 0b                            je     0x0040204c
                           .text:00402041 68 4a 26 40 00                   push   $0x40264a
                           .text:00402046 e8 05 0b 00 00                   call   0x00402b50
                           .text:0040204b 59                               pop    %ecx
                           .text:0040204c e8 da 0a 00 00                   call   0x00402b2b
                           .text:00402051 e8 d5 0a 00 00                   call   0x00402b2b
                           .text:00402056 e8 fe 05 00 00                   call   0x00402659
                           .text:0040205b e8 ea 05 00 00                   call   0x0040264a
                           .text:00402060 50                               push   %eax
                           .text:00402061 e8 32 0b 00 00                   call   0x00402b98
                           .text:00402066 59                               pop    %ecx
                           .text:00402067 e8 f0 0a 00 00                   call   0x00402b5c
                           .text:0040206c e8 d9 05 00 00                   call   0x0040264a
                           .text:00402071 33 c0                            xor    %eax,%eax
                           .text:00402073 c3                               ret    
                           .text:00402074 6a 07                            push   $0x7
                           .text:00402076 e8 40 06 00 00                   call   0x004026bb
                           .text:0040207b cc                               int3   
                           .text:0040207c e8 05 06 00 00                   call   0x00402686
                           .text:00402081 33 c0                            xor    %eax,%eax
                           .text:00402083 c3                               ret    
                           .text:00402084 e8 c4 07 00 00                   call   0x0040284d
                           .text:00402089 e8 bc 05 00 00                   call   0x0040264a
                           .text:0040208e 50                               push   %eax
                           .text:0040208f e8 0a 0b 00 00                   call   0x00402b9e
                           .text:00402094 59                               pop    %ecx
                           .text:00402095 c3                               ret    
                           .text:00402096 6a 14                            push   $0x14
                           .text:00402098 68 38 3b 40 00                   push   $0x403b38
                           .text:0040209d e8 5e 08 00 00                   call   0x00402900
                           .text:004020a2 6a 01                            push   $0x1
                           .text:004020a4 e8 09 03 00 00                   call   0x004023b2
                           .text:004020a9 59                               pop    %ecx
                           .text:004020aa 84 c0                            test   %al,%al
                           .text:004020ac 75 07                            jne    0x004020b5
                           .text:004020ae 6a 07                            push   $0x7
                           .text:004020b0 e8 06 06 00 00                   call   0x004026bb
                           .text:004020b5 32 db                            xor    %bl,%bl
                           .text:004020b7 88 5d e7                         mov    %bl,-0x19(%ebp)
                           .text:004020ba 83 65 fc 00                      andl   $0x0,-0x4(%ebp)
                           .text:004020be e8 ba 02 00 00                   call   0x0040237d
                           .text:004020c3 88 45 dc                         mov    %al,-0x24(%ebp)
                           .text:004020c6 a1 54 53 40 00                   mov    0x405354,%eax
                           .text:004020cb 33 c9                            xor    %ecx,%ecx
                           .text:004020cd 41                               inc    %ecx
                           .text:004020ce 3b c1                            cmp    %ecx,%eax
                           .text:004020d0 74 dc                            je     0x004020ae
                           .text:004020d2 85 c0                            test   %eax,%eax
                           .text:004020d4 75 49                            jne    0x0040211f
                           .text:004020d6 89 0d 54 53 40 00                mov    %ecx,0x405354
                           .text:004020dc 68 58 31 40 00                   push   $0x403158
                           .text:004020e1 68 4c 31 40 00                   push   $0x40314c
                           .text:004020e6 e8 83 0a 00 00                   call   0x00402b6e
                           .text:004020eb 59                               pop    %ecx
                           .text:004020ec 59                               pop    %ecx
                           .text:004020ed 85 c0                            test   %eax,%eax
                           .text:004020ef 74 11                            je     0x00402102
                           .text:004020f1 c7 45 fc fe ff ff ff             movl   $0xfffffffe,-0x4(%ebp)
                           .text:004020f8 b8 ff 00 00 00                   mov    $0xff,%eax
                           .text:004020fd e9 04 01 00 00                   jmp    0x00402206
                           .text:00402102 68 48 31 40 00                   push   $0x403148
                           .text:00402107 68 40 31 40 00                   push   $0x403140
                           .text:0040210c e8 57 0a 00 00                   call   0x00402b68
                           .text:00402111 59                               pop    %ecx
                           .text:00402112 59                               pop    %ecx
                           .text:00402113 c7 05 54 53 40 00 02 00 00 00    movl   $0x2,0x405354
                           .text:0040211d eb 05                            jmp    0x00402124
                           .text:0040211f 8a d9                            mov    %cl,%bl
                           .text:00402121 88 5d e7                         mov    %bl,-0x19(%ebp)
                           .text:00402124 ff 75 dc                         pushl  -0x24(%ebp)
                           .text:00402127 e8 e3 03 00 00                   call   0x0040250f
                           .text:0040212c 59                               pop    %ecx
                           .text:0040212d e8 7d 05 00 00                   call   0x004026af
                           .text:00402132 8b f0                            mov    %eax,%esi
                           .text:00402134 33 ff                            xor    %edi,%edi
                           .text:00402136 39 3e                            cmp    %edi,(%esi)
                           .text:00402138 74 1a                            je     0x00402154
                           .text:0040213a 56                               push   %esi
                           .text:0040213b e8 42 03 00 00                   call   0x00402482
                           .text:00402140 59                               pop    %ecx
                           .text:00402141 84 c0                            test   %al,%al
                           .text:00402143 74 0f                            je     0x00402154
                           .text:00402145 57                               push   %edi
                           .text:00402146 6a 02                            push   $0x2
                           .text:00402148 57                               push   %edi
                           .text:00402149 8b 36                            mov    (%esi),%esi
                           .text:0040214b 8b ce                            mov    %esi,%ecx
                           .text:0040214d e8 9e 07 00 00                   call   0x004028f0
                           .text:00402152 ff d6                            call   *%esi
                           .text:00402154 e8 5c 05 00 00                   call   0x004026b5
                           .text:00402159 8b f0                            mov    %eax,%esi
                           .text:0040215b 39 3e                            cmp    %edi,(%esi)
                           .text:0040215d 74 13                            je     0x00402172
                           .text:0040215f 56                               push   %esi
                           .text:00402160 e8 1d 03 00 00                   call   0x00402482
                           .text:00402165 59                               pop    %ecx
                           .text:00402166 84 c0                            test   %al,%al
                           .text:00402168 74 08                            je     0x00402172
                           .text:0040216a ff 36                            pushl  (%esi)
                           .text:0040216c e8 21 0a 00 00                   call   0x00402b92
                           .text:00402171 59                               pop    %ecx
                           .text:00402172 57                               push   %edi
                           .text:00402173 e8 b4 09 00 00                   call   0x00402b2c
                           .text:00402178 59                               pop    %ecx
                           .text:00402179 e8 58 06 00 00                   call   0x004027d6
                           .text:0040217e 0f b7 c0                         movzwl %ax,%eax
                           .text:00402181 50                               push   %eax
                           .text:00402182 e8 db 09 00 00                   call   0x00402b62
                           .text:00402187 50                               push   %eax
                           .text:00402188 57                               push   %edi
                           .text:00402189 68 00 00 40 00                   push   $0x400000
                           .text:0040218e e8 6d ee ff ff                   call   0x00401000
                           .text:00402193 8b f0                            mov    %eax,%esi
                           .text:00402195 57                               push   %edi
                           .text:00402196 e8 97 09 00 00                   call   0x00402b32
                           .text:0040219b 59                               pop    %ecx
                           .text:0040219c e8 68 06 00 00                   call   0x00402809
                           .text:004021a1 84 c0                            test   %al,%al
                           .text:004021a3 75 06                            jne    0x004021ab
                           .text:004021a5 56                               push   %esi
                           .text:004021a6 e8 c9 09 00 00                   call   0x00402b74
                           .text:004021ab 84 db                            test   %bl,%bl
                           .text:004021ad 75 05                            jne    0x004021b4
                           .text:004021af e8 d2 09 00 00                   call   0x00402b86
                           .text:004021b4 57                               push   %edi
                           .text:004021b5 6a 01                            push   $0x1
                           .text:004021b7 e8 70 03 00 00                   call   0x0040252c
                           .text:004021bc 59                               pop    %ecx
                           .text:004021bd 59                               pop    %ecx
                           .text:004021be c7 45 fc fe ff ff ff             movl   $0xfffffffe,-0x4(%ebp)
                           .text:004021c5 8b c6                            mov    %esi,%eax
                           .text:004021c7 eb 3d                            jmp    0x00402206
                           .text:004021c9 8b 4d ec                         mov    -0x14(%ebp),%ecx
                           .text:004021cc 8b 01                            mov    (%ecx),%eax
                           .text:004021ce 8b 00                            mov    (%eax),%eax
                           .text:004021d0 89 45 e0                         mov    %eax,-0x20(%ebp)
                           .text:004021d3 51                               push   %ecx
                           .text:004021d4 50                               push   %eax
                           .text:004021d5 e8 6a 09 00 00                   call   0x00402b44
                           .text:004021da 59                               pop    %ecx
                           .text:004021db 59                               pop    %ecx
                           .text:004021dc c3                               ret    
                           .text:004021dd 8b 65 e8                         mov    -0x18(%ebp),%esp
                           .text:004021e0 e8 24 06 00 00                   call   0x00402809
                           .text:004021e5 84 c0                            test   %al,%al
                           .text:004021e7 75 08                            jne    0x004021f1
                           .text:004021e9 ff 75 e0                         pushl  -0x20(%ebp)
                           .text:004021ec e8 89 09 00 00                   call   0x00402b7a
                           .text:004021f1 80 7d e7 00                      cmpb   $0x0,-0x19(%ebp)
                           .text:004021f5 75 05                            jne    0x004021fc
                           .text:004021f7 e8 90 09 00 00                   call   0x00402b8c
                           .text:004021fc c7 45 fc fe ff ff ff             movl   $0xfffffffe,-0x4(%ebp)
                           .text:00402203 8b 45 e0                         mov    -0x20(%ebp),%eax
                           .text:00402206 e8 3b 07 00 00                   call   0x00402946
                           .text:0040220b c3                               ret    
                           .text:0040220c e8 93 03 00 00                   call   0x004025a4
                           .text:00402211 e9 80 fe ff ff                   jmp    0x00402096
                           .text:00402216 55                               push   %ebp
                           .text:00402217 8b ec                            mov    %esp,%ebp
                           .text:00402219 6a 00                            push   $0x0
                           .text:0040221b ff 15 10 30 40 00                call   *0x403010
                           .text:00402221 ff 75 08                         pushl  0x8(%ebp)
                           .text:00402224 ff 15 0c 30 40 00                call   *0x40300c
                           .text:0040222a 68 09 04 00 c0                   push   $0xc0000409
                           .text:0040222f ff 15 14 30 40 00                call   *0x403014
                           .text:00402235 50                               push   %eax
                           .text:00402236 ff 15 18 30 40 00                call   *0x403018
                           .text:0040223c 5d                               pop    %ebp
                           .text:0040223d c3                               ret    
                           .text:0040223e 55                               push   %ebp
                           .text:0040223f 8b ec                            mov    %esp,%ebp
                           .text:00402241 81 ec 24 03 00 00                sub    $0x324,%esp
                           .text:00402247 6a 17                            push   $0x17
                           .text:00402249 e8 7a 09 00 00                   call   0x00402bc8
                           .text:0040224e 85 c0                            test   %eax,%eax
                           .text:00402250 74 05                            je     0x00402257
                           .text:00402252 6a 02                            push   $0x2
                           .text:00402254 59                               pop    %ecx
                           .text:00402255 cd 29                            int    $0x29
                           .text:00402257 a3 38 51 40 00                   mov    %eax,0x405138
                           .text:0040225c 89 0d 34 51 40 00                mov    %ecx,0x405134
                           .text:00402262 89 15 30 51 40 00                mov    %edx,0x405130
                           .text:00402268 89 1d 2c 51 40 00                mov    %ebx,0x40512c
                           .text:0040226e 89 35 28 51 40 00                mov    %esi,0x405128
                           .text:00402274 89 3d 24 51 40 00                mov    %edi,0x405124
                           .text:0040227a 66 8c 15 50 51 40 00             data16 mov %ss,0x405150
                           .text:00402281 66 8c 0d 44 51 40 00             data16 mov %cs,0x405144
                           .text:00402288 66 8c 1d 20 51 40 00             data16 mov %ds,0x405120
                           .text:0040228f 66 8c 05 1c 51 40 00             data16 mov %es,0x40511c
                           .text:00402296 66 8c 25 18 51 40 00             data16 mov %fs,0x405118
                           .text:0040229d 66 8c 2d 14 51 40 00             data16 mov %gs,0x405114
                           .text:004022a4 9c                               pushf  
                           .text:004022a5 8f 05 48 51 40 00                popl   0x405148
                           .text:004022ab 8b 45 00                         mov    0x0(%ebp),%eax
                           .text:004022ae a3 3c 51 40 00                   mov    %eax,0x40513c
                           .text:004022b3 8b 45 04                         mov    0x4(%ebp),%eax
                           .text:004022b6 a3 40 51 40 00                   mov    %eax,0x405140
                           .text:004022bb 8d 45 08                         lea    0x8(%ebp),%eax
                           .text:004022be a3 4c 51 40 00                   mov    %eax,0x40514c
                           .text:004022c3 8b 85 dc fc ff ff                mov    -0x324(%ebp),%eax
                           .text:004022c9 c7 05 88 50 40 00 01 00 01 00    movl   $0x10001,0x405088
                           .text:004022d3 a1 40 51 40 00                   mov    0x405140,%eax
                           .text:004022d8 a3 44 50 40 00                   mov    %eax,0x405044
                           .text:004022dd c7 05 38 50 40 00 09 04 00 c0    movl   $0xc0000409,0x405038
                           .text:004022e7 c7 05 3c 50 40 00 01 00 00 00    movl   $0x1,0x40503c
                           .text:004022f1 c7 05 48 50 40 00 01 00 00 00    movl   $0x1,0x405048
                           .text:004022fb 6a 04                            push   $0x4
                           .text:004022fd 58                               pop    %eax
                           .text:004022fe 6b c0 00                         imul   $0x0,%eax,%eax
                           .text:00402301 c7 80 4c 50 40 00 02 00 00 00    movl   $0x2,0x40504c(%eax)
                           .text:0040230b 6a 04                            push   $0x4
                           .text:0040230d 58                               pop    %eax
                           .text:0040230e 6b c0 00                         imul   $0x0,%eax,%eax
                           .text:00402311 8b 0d 04 50 40 00                mov    0x405004,%ecx
                           .text:00402317 89 4c 05 f8                      mov    %ecx,-0x8(%ebp,%eax,1)
                           .text:0040231b 6a 04                            push   $0x4
                           .text:0040231d 58                               pop    %eax
                           .text:0040231e c1 e0 00                         shl    $0x0,%eax
                           .text:00402321 8b 0d 00 50 40 00                mov    0x405000,%ecx
                           .text:00402327 89 4c 05 f8                      mov    %ecx,-0x8(%ebp,%eax,1)
                           .text:0040232b 68 70 31 40 00                   push   $0x403170
                           .text:00402330 e8 e1 fe ff ff                   call   0x00402216
                           .text:00402335 8b e5                            mov    %ebp,%esp
                           .text:00402337 5d                               pop    %ebp
                           .text:00402338 c3                               ret    
                           .text:00402339 55                               push   %ebp
                           .text:0040233a 8b ec                            mov    %esp,%ebp
                           .text:0040233c 8b 45 08                         mov    0x8(%ebp),%eax
                           .text:0040233f 56                               push   %esi
                           .text:00402340 8b 48 3c                         mov    0x3c(%eax),%ecx
                           .text:00402343 03 c8                            add    %eax,%ecx
                           .text:00402345 0f b7 41 14                      movzwl 0x14(%ecx),%eax
                           .text:00402349 8d 51 18                         lea    0x18(%ecx),%edx
                           .text:0040234c 03 d0                            add    %eax,%edx
                           .text:0040234e 0f b7 41 06                      movzwl 0x6(%ecx),%eax
                           .text:00402352 6b f0 28                         imul   $0x28,%eax,%esi
                           .text:00402355 03 f2                            add    %edx,%esi
                           .text:00402357 3b d6                            cmp    %esi,%edx
                           .text:00402359 74 19                            je     0x00402374
                           .text:0040235b 8b 4d 0c                         mov    0xc(%ebp),%ecx
                           .text:0040235e 3b 4a 0c                         cmp    0xc(%edx),%ecx
                           .text:00402361 72 0a                            jb     0x0040236d
                           .text:00402363 8b 42 08                         mov    0x8(%edx),%eax
                           .text:00402366 03 42 0c                         add    0xc(%edx),%eax
                           .text:00402369 3b c8                            cmp    %eax,%ecx
                           .text:0040236b 72 0c                            jb     0x00402379
                           .text:0040236d 83 c2 28                         add    $0x28,%edx
                           .text:00402370 3b d6                            cmp    %esi,%edx
                           .text:00402372 75 ea                            jne    0x0040235e
                           .text:00402374 33 c0                            xor    %eax,%eax
                           .text:00402376 5e                               pop    %esi
                           .text:00402377 5d                               pop    %ebp
                           .text:00402378 c3                               ret    
                           .text:00402379 8b c2                            mov    %edx,%eax
                           .text:0040237b eb f9                            jmp    0x00402376
                           .text:0040237d e8 9d 07 00 00                   call   0x00402b1f
                           .text:00402382 85 c0                            test   %eax,%eax
                           .text:00402384 75 03                            jne    0x00402389
                           .text:00402386 32 c0                            xor    %al,%al
                           .text:00402388 c3                               ret    
                           .text:00402389 64 a1 18 00 00 00                mov    %fs:0x18,%eax
                           .text:0040238f 56                               push   %esi
                           .text:00402390 be 58 53 40 00                   mov    $0x405358,%esi
                           .text:00402395 8b 50 04                         mov    0x4(%eax),%edx
                           .text:00402398 eb 04                            jmp    0x0040239e
                           .text:0040239a 3b d0                            cmp    %eax,%edx
                           .text:0040239c 74 10                            je     0x004023ae
                           .text:0040239e 33 c0                            xor    %eax,%eax
                           .text:004023a0 8b ca                            mov    %edx,%ecx
                           .text:004023a2 f0 0f b1 0e                      lock cmpxchg %ecx,(%esi)
                           .text:004023a6 85 c0                            test   %eax,%eax
                           .text:004023a8 75 f0                            jne    0x0040239a
                           .text:004023aa 32 c0                            xor    %al,%al
                           .text:004023ac 5e                               pop    %esi
                           .text:004023ad c3                               ret    
                           .text:004023ae b0 01                            mov    $0x1,%al
                           .text:004023b0 5e                               pop    %esi
                           .text:004023b1 c3                               ret    
                           .text:004023b2 55                               push   %ebp
                           .text:004023b3 8b ec                            mov    %esp,%ebp
                           .text:004023b5 83 7d 08 00                      cmpl   $0x0,0x8(%ebp)
                           .text:004023b9 75 07                            jne    0x004023c2
                           .text:004023bb c6 05 74 53 40 00 01             movb   $0x1,0x405374
                           .text:004023c2 e8 b7 05 00 00                   call   0x0040297e
                           .text:004023c7 e8 02 08 00 00                   call   0x00402bce
                           .text:004023cc 84 c0                            test   %al,%al
                           .text:004023ce 75 04                            jne    0x004023d4
                           .text:004023d0 32 c0                            xor    %al,%al
                           .text:004023d2 5d                               pop    %ebp
                           .text:004023d3 c3                               ret    
                           .text:004023d4 e8 f5 07 00 00                   call   0x00402bce
                           .text:004023d9 84 c0                            test   %al,%al
                           .text:004023db 75 0a                            jne    0x004023e7
                           .text:004023dd 6a 00                            push   $0x0
                           .text:004023df e8 ea 07 00 00                   call   0x00402bce
                           .text:004023e4 59                               pop    %ecx
                           .text:004023e5 eb e9                            jmp    0x004023d0
                           .text:004023e7 b0 01                            mov    $0x1,%al
                           .text:004023e9 5d                               pop    %ebp
                           .text:004023ea c3                               ret    
                           .text:004023eb 55                               push   %ebp
                           .text:004023ec 8b ec                            mov    %esp,%ebp
                           .text:004023ee 83 ec 0c                         sub    $0xc,%esp
                           .text:004023f1 56                               push   %esi
                           .text:004023f2 8b 75 08                         mov    0x8(%ebp),%esi
                           .text:004023f5 85 f6                            test   %esi,%esi
                           .text:004023f7 74 05                            je     0x004023fe
                           .text:004023f9 83 fe 01                         cmp    $0x1,%esi
                           .text:004023fc 75 7c                            jne    0x0040247a
                           .text:004023fe e8 1c 07 00 00                   call   0x00402b1f
                           .text:00402403 85 c0                            test   %eax,%eax
                           .text:00402405 74 2a                            je     0x00402431
                           .text:00402407 85 f6                            test   %esi,%esi
                           .text:00402409 75 26                            jne    0x00402431
                           .text:0040240b 68 5c 53 40 00                   push   $0x40535c
                           .text:00402410 e8 95 07 00 00                   call   0x00402baa
                           .text:00402415 59                               pop    %ecx
                           .text:00402416 85 c0                            test   %eax,%eax
                           .text:00402418 74 04                            je     0x0040241e
                           .text:0040241a 32 c0                            xor    %al,%al
                           .text:0040241c eb 57                            jmp    0x00402475
                           .text:0040241e 68 68 53 40 00                   push   $0x405368
                           .text:00402423 e8 82 07 00 00                   call   0x00402baa
                           .text:00402428 f7 d8                            neg    %eax
                           .text:0040242a 59                               pop    %ecx
                           .text:0040242b 1a c0                            sbb    %al,%al
                           .text:0040242d fe c0                            inc    %al
                           .text:0040242f eb 44                            jmp    0x00402475
                           .text:00402431 a1 04 50 40 00                   mov    0x405004,%eax
                           .text:00402436 8d 75 f4                         lea    -0xc(%ebp),%esi
                           .text:00402439 57                               push   %edi
                           .text:0040243a 83 e0 1f                         and    $0x1f,%eax
                           .text:0040243d bf 5c 53 40 00                   mov    $0x40535c,%edi
                           .text:00402442 6a 20                            push   $0x20
                           .text:00402444 59                               pop    %ecx
                           .text:00402445 2b c8                            sub    %eax,%ecx
                           .text:00402447 83 c8 ff                         or     $0xffffffff,%eax
                           .text:0040244a d3 c8                            ror    %cl,%eax
                           .text:0040244c 33 05 04 50 40 00                xor    0x405004,%eax
                           .text:00402452 89 45 f4                         mov    %eax,-0xc(%ebp)
                           .text:00402455 89 45 f8                         mov    %eax,-0x8(%ebp)
                           .text:00402458 89 45 fc                         mov    %eax,-0x4(%ebp)
                           .text:0040245b a5                               movsl  %ds:(%esi),%es:(%edi)
                           .text:0040245c a5                               movsl  %ds:(%esi),%es:(%edi)
                           .text:0040245d a5                               movsl  %ds:(%esi),%es:(%edi)
                           .text:0040245e bf 68 53 40 00                   mov    $0x405368,%edi
                           .text:00402463 89 45 f4                         mov    %eax,-0xc(%ebp)
                           .text:00402466 89 45 f8                         mov    %eax,-0x8(%ebp)
                           .text:00402469 8d 75 f4                         lea    -0xc(%ebp),%esi
                           .text:0040246c 89 45 fc                         mov    %eax,-0x4(%ebp)
                           .text:0040246f b0 01                            mov    $0x1,%al
                           .text:00402471 a5                               movsl  %ds:(%esi),%es:(%edi)
                           .text:00402472 a5                               movsl  %ds:(%esi),%es:(%edi)
                           .text:00402473 a5                               movsl  %ds:(%esi),%es:(%edi)
                           .text:00402474 5f                               pop    %edi
                           .text:00402475 5e                               pop    %esi
                           .text:00402476 8b e5                            mov    %ebp,%esp
                           .text:00402478 5d                               pop    %ebp
                           .text:00402479 c3                               ret    
                           .text:0040247a 6a 05                            push   $0x5
                           .text:0040247c e8 3a 02 00 00                   call   0x004026bb
                           .text:00402481 cc                               int3   
                           .text:00402482 6a 08                            push   $0x8
                           .text:00402484 68 58 3b 40 00                   push   $0x403b58
                           .text:00402489 e8 72 04 00 00                   call   0x00402900
                           .text:0040248e 83 65 fc 00                      andl   $0x0,-0x4(%ebp)
                           .text:00402492 b8 4d 5a 00 00                   mov    $0x5a4d,%eax
                           .text:00402497 66 39 05 00 00 40 00             cmp    %ax,0x400000
                           .text:0040249e 75 60                            jne    0x00402500
                           .text:004024a0 a1 3c 00 40 00                   mov    0x40003c,%eax
                           .text:004024a5 81 b8 00 00 40 00 50 45 00 00    cmpl   $0x4550,0x400000(%eax)
                           .text:004024af 75 4f                            jne    0x00402500
                           .text:004024b1 b9 0b 01 00 00                   mov    $0x10b,%ecx
                           .text:004024b6 66 39 88 18 00 40 00             cmp    %cx,0x400018(%eax)
                           .text:004024bd 75 41                            jne    0x00402500
                           .text:004024bf 8b 45 08                         mov    0x8(%ebp),%eax
                           .text:004024c2 b9 00 00 40 00                   mov    $0x400000,%ecx
                           .text:004024c7 2b c1                            sub    %ecx,%eax
                           .text:004024c9 50                               push   %eax
                           .text:004024ca 51                               push   %ecx
                           .text:004024cb e8 69 fe ff ff                   call   0x00402339
                           .text:004024d0 59                               pop    %ecx
                           .text:004024d1 59                               pop    %ecx
                           .text:004024d2 85 c0                            test   %eax,%eax
                           .text:004024d4 74 2a                            je     0x00402500
                           .text:004024d6 f7 40 24 00 00 00 80             testl  $0x80000000,0x24(%eax)
                           .text:004024dd 75 21                            jne    0x00402500
                           .text:004024df c7 45 fc fe ff ff ff             movl   $0xfffffffe,-0x4(%ebp)
                           .text:004024e6 b0 01                            mov    $0x1,%al
                           .text:004024e8 eb 1f                            jmp    0x00402509
                           .text:004024ea 8b 45 ec                         mov    -0x14(%ebp),%eax
                           .text:004024ed 8b 00                            mov    (%eax),%eax
                           .text:004024ef 33 c9                            xor    %ecx,%ecx
                           .text:004024f1 81 38 05 00 00 c0                cmpl   $0xc0000005,(%eax)
                           .text:004024f7 0f 94 c1                         sete   %cl
                           .text:004024fa 8b c1                            mov    %ecx,%eax
                           .text:004024fc c3                               ret    
                           .text:004024fd 8b 65 e8                         mov    -0x18(%ebp),%esp
                           .text:00402500 c7 45 fc fe ff ff ff             movl   $0xfffffffe,-0x4(%ebp)
                           .text:00402507 32 c0                            xor    %al,%al
                           .text:00402509 e8 38 04 00 00                   call   0x00402946
                           .text:0040250e c3                               ret    
                           .text:0040250f 55                               push   %ebp
                           .text:00402510 8b ec                            mov    %esp,%ebp
                           .text:00402512 e8 08 06 00 00                   call   0x00402b1f
                           .text:00402517 85 c0                            test   %eax,%eax
                           .text:00402519 74 0f                            je     0x0040252a
                           .text:0040251b 80 7d 08 00                      cmpb   $0x0,0x8(%ebp)
                           .text:0040251f 75 09                            jne    0x0040252a
                           .text:00402521 33 c0                            xor    %eax,%eax
                           .text:00402523 b9 58 53 40 00                   mov    $0x405358,%ecx
                           .text:00402528 87 01                            xchg   %eax,(%ecx)
                           .text:0040252a 5d                               pop    %ebp
                           .text:0040252b c3                               ret    
                           .text:0040252c 55                               push   %ebp
                           .text:0040252d 8b ec                            mov    %esp,%ebp
                           .text:0040252f 80 3d 74 53 40 00 00             cmpb   $0x0,0x405374
                           .text:00402536 74 06                            je     0x0040253e
                           .text:00402538 80 7d 0c 00                      cmpb   $0x0,0xc(%ebp)
                           .text:0040253c 75 12                            jne    0x00402550
                           .text:0040253e ff 75 08                         pushl  0x8(%ebp)
                           .text:00402541 e8 88 06 00 00                   call   0x00402bce
                           .text:00402546 ff 75 08                         pushl  0x8(%ebp)
                           .text:00402549 e8 80 06 00 00                   call   0x00402bce
                           .text:0040254e 59                               pop    %ecx
                           .text:0040254f 59                               pop    %ecx
                           .text:00402550 b0 01                            mov    $0x1,%al
                           .text:00402552 5d                               pop    %ebp
                           .text:00402553 c3                               ret    
                           .text:00402554 55                               push   %ebp
                           .text:00402555 8b ec                            mov    %esp,%ebp
                           .text:00402557 a1 04 50 40 00                   mov    0x405004,%eax
                           .text:0040255c 8b c8                            mov    %eax,%ecx
                           .text:0040255e 33 05 5c 53 40 00                xor    0x40535c,%eax
                           .text:00402564 83 e1 1f                         and    $0x1f,%ecx
                           .text:00402567 ff 75 08                         pushl  0x8(%ebp)
                           .text:0040256a d3 c8                            ror    %cl,%eax
                           .text:0040256c 83 f8 ff                         cmp    $0xffffffff,%eax
                           .text:0040256f 75 07                            jne    0x00402578
                           .text:00402571 e8 40 06 00 00                   call   0x00402bb6
                           .text:00402576 eb 0b                            jmp    0x00402583
                           .text:00402578 68 5c 53 40 00                   push   $0x40535c
                           .text:0040257d e8 2e 06 00 00                   call   0x00402bb0
                           .text:00402582 59                               pop    %ecx
                           .text:00402583 f7 d8                            neg    %eax
                           .text:00402585 59                               pop    %ecx
                           .text:00402586 1b c0                            sbb    %eax,%eax
                           .text:00402588 f7 d0                            not    %eax
                           .text:0040258a 23 45 08                         and    0x8(%ebp),%eax
                           .text:0040258d 5d                               pop    %ebp
                           .text:0040258e c3                               ret    
                           .text:0040258f 55                               push   %ebp
                           .text:00402590 8b ec                            mov    %esp,%ebp
                           .text:00402592 ff 75 08                         pushl  0x8(%ebp)
                           .text:00402595 e8 ba ff ff ff                   call   0x00402554
                           .text:0040259a f7 d8                            neg    %eax
                           .text:0040259c 59                               pop    %ecx
                           .text:0040259d 1b c0                            sbb    %eax,%eax
                           .text:0040259f f7 d8                            neg    %eax
                           .text:004025a1 48                               dec    %eax
                           .text:004025a2 5d                               pop    %ebp
                           .text:004025a3 c3                               ret    
                           .text:004025a4 55                               push   %ebp
                           .text:004025a5 8b ec                            mov    %esp,%ebp
                           .text:004025a7 83 ec 14                         sub    $0x14,%esp
                           .text:004025aa 83 65 f4 00                      andl   $0x0,-0xc(%ebp)
                           .text:004025ae 83 65 f8 00                      andl   $0x0,-0x8(%ebp)
                           .text:004025b2 a1 04 50 40 00                   mov    0x405004,%eax
                           .text:004025b7 56                               push   %esi
                           .text:004025b8 57                               push   %edi
                           .text:004025b9 bf 4e e6 40 bb                   mov    $0xbb40e64e,%edi
                           .text:004025be be 00 00 ff ff                   mov    $0xffff0000,%esi
                           .text:004025c3 3b c7                            cmp    %edi,%eax
                           .text:004025c5 74 0d                            je     0x004025d4
                           .text:004025c7 85 c6                            test   %eax,%esi
                           .text:004025c9 74 09                            je     0x004025d4
                           .text:004025cb f7 d0                            not    %eax
                           .text:004025cd a3 00 50 40 00                   mov    %eax,0x405000
                           .text:004025d2 eb 66                            jmp    0x0040263a
                           .text:004025d4 8d 45 f4                         lea    -0xc(%ebp),%eax
                           .text:004025d7 50                               push   %eax
                           .text:004025d8 ff 15 28 30 40 00                call   *0x403028
                           .text:004025de 8b 45 f8                         mov    -0x8(%ebp),%eax
                           .text:004025e1 33 45 f4                         xor    -0xc(%ebp),%eax
                           .text:004025e4 89 45 fc                         mov    %eax,-0x4(%ebp)
                           .text:004025e7 ff 15 24 30 40 00                call   *0x403024
                           .text:004025ed 31 45 fc                         xor    %eax,-0x4(%ebp)
                           .text:004025f0 ff 15 40 30 40 00                call   *0x403040
                           .text:004025f6 31 45 fc                         xor    %eax,-0x4(%ebp)
                           .text:004025f9 8d 45 ec                         lea    -0x14(%ebp),%eax
                           .text:004025fc 50                               push   %eax
                           .text:004025fd ff 15 08 30 40 00                call   *0x403008
                           .text:00402603 8b 4d f0                         mov    -0x10(%ebp),%ecx
                           .text:00402606 8d 45 fc                         lea    -0x4(%ebp),%eax
                           .text:00402609 33 4d ec                         xor    -0x14(%ebp),%ecx
                           .text:0040260c 33 4d fc                         xor    -0x4(%ebp),%ecx
                           .text:0040260f 33 c8                            xor    %eax,%ecx
                           .text:00402611 3b cf                            cmp    %edi,%ecx
                           .text:00402613 75 07                            jne    0x0040261c
                           .text:00402615 b9 4f e6 40 bb                   mov    $0xbb40e64f,%ecx
                           .text:0040261a eb 10                            jmp    0x0040262c
                           .text:0040261c 85 ce                            test   %ecx,%esi
                           .text:0040261e 75 0c                            jne    0x0040262c
                           .text:00402620 8b c1                            mov    %ecx,%eax
                           .text:00402622 0d 11 47 00 00                   or     $0x4711,%eax
                           .text:00402627 c1 e0 10                         shl    $0x10,%eax
                           .text:0040262a 0b c8                            or     %eax,%ecx
                           .text:0040262c 89 0d 04 50 40 00                mov    %ecx,0x405004
                           .text:00402632 f7 d1                            not    %ecx
                           .text:00402634 89 0d 00 50 40 00                mov    %ecx,0x405000
                           .text:0040263a 5f                               pop    %edi
                           .text:0040263b 5e                               pop    %esi
                           .text:0040263c 8b e5                            mov    %ebp,%esp
                           .text:0040263e 5d                               pop    %ebp
                           .text:0040263f c3                               ret    
                           .text:00402640 33 c0                            xor    %eax,%eax
                           .text:00402642 40                               inc    %eax
                           .text:00402643 c3                               ret    
                           .text:00402644 b8 00 40 00 00                   mov    $0x4000,%eax
                           .text:00402649 c3                               ret    
                           .text:0040264a 33 c0                            xor    %eax,%eax
                           .text:0040264c c3                               ret    
                           .text:0040264d 68 78 53 40 00                   push   $0x405378
                           .text:00402652 ff 15 2c 30 40 00                call   *0x40302c
                           .text:00402658 c3                               ret    
                           .text:00402659 68 00 00 03 00                   push   $0x30000
                           .text:0040265e 68 00 00 01 00                   push   $0x10000
                           .text:00402663 6a 00                            push   $0x0
                           .text:00402665 e8 52 05 00 00                   call   0x00402bbc
                           .text:0040266a 83 c4 0c                         add    $0xc,%esp
                           .text:0040266d 85 c0                            test   %eax,%eax
                           .text:0040266f 75 01                            jne    0x00402672
                           .text:00402671 c3                               ret    
                           .text:00402672 6a 07                            push   $0x7
                           .text:00402674 e8 42 00 00 00                   call   0x004026bb
                           .text:00402679 cc                               int3   
                           .text:0040267a b8 80 53 40 00                   mov    $0x405380,%eax
                           .text:0040267f c3                               ret    
                           .text:00402680 b8 88 53 40 00                   mov    $0x405388,%eax
                           .text:00402685 c3                               ret    
                           .text:00402686 e8 ef ff ff ff                   call   0x0040267a
                           .text:0040268b 8b 48 04                         mov    0x4(%eax),%ecx
                           .text:0040268e 83 08 04                         orl    $0x4,(%eax)
                           .text:00402691 89 48 04                         mov    %ecx,0x4(%eax)
                           .text:00402694 e8 e7 ff ff ff                   call   0x00402680
                           .text:00402699 8b 48 04                         mov    0x4(%eax),%ecx
                           .text:0040269c 83 08 02                         orl    $0x2,(%eax)
                           .text:0040269f 89 48 04                         mov    %ecx,0x4(%eax)
                           .text:004026a2 c3                               ret    
                           .text:004026a3 33 c0                            xor    %eax,%eax
                           .text:004026a5 39 05 0c 50 40 00                cmp    %eax,0x40500c
                           .text:004026ab 0f 94 c0                         sete   %al
                           .text:004026ae c3                               ret    
                           .text:004026af b8 34 58 40 00                   mov    $0x405834,%eax
                           .text:004026b4 c3                               ret    
                           .text:004026b5 b8 30 58 40 00                   mov    $0x405830,%eax
                           .text:004026ba c3                               ret    
                           .text:004026bb 55                               push   %ebp
                           .text:004026bc 8b ec                            mov    %esp,%ebp
                           .text:004026be 81 ec 24 03 00 00                sub    $0x324,%esp
                           .text:004026c4 53                               push   %ebx
                           .text:004026c5 56                               push   %esi
                           .text:004026c6 6a 17                            push   $0x17
                           .text:004026c8 e8 fb 04 00 00                   call   0x00402bc8
                           .text:004026cd 85 c0                            test   %eax,%eax
                           .text:004026cf 74 05                            je     0x004026d6
                           .text:004026d1 8b 4d 08                         mov    0x8(%ebp),%ecx
                           .text:004026d4 cd 29                            int    $0x29
                           .text:004026d6 33 f6                            xor    %esi,%esi
                           .text:004026d8 8d 85 dc fc ff ff                lea    -0x324(%ebp),%eax
                           .text:004026de 68 cc 02 00 00                   push   $0x2cc
                           .text:004026e3 56                               push   %esi
                           .text:004026e4 50                               push   %eax
                           .text:004026e5 89 35 90 53 40 00                mov    %esi,0x405390
                           .text:004026eb e8 48 04 00 00                   call   0x00402b38
                           .text:004026f0 83 c4 0c                         add    $0xc,%esp
                           .text:004026f3 89 85 8c fd ff ff                mov    %eax,-0x274(%ebp)
                           .text:004026f9 89 8d 88 fd ff ff                mov    %ecx,-0x278(%ebp)
                           .text:004026ff 89 95 84 fd ff ff                mov    %edx,-0x27c(%ebp)
                           .text:00402705 89 9d 80 fd ff ff                mov    %ebx,-0x280(%ebp)
                           .text:0040270b 89 b5 7c fd ff ff                mov    %esi,-0x284(%ebp)
                           .text:00402711 89 bd 78 fd ff ff                mov    %edi,-0x288(%ebp)
                           .text:00402717 66 8c 95 a4 fd ff ff             data16 mov %ss,-0x25c(%ebp)
                           .text:0040271e 66 8c 8d 98 fd ff ff             data16 mov %cs,-0x268(%ebp)
                           .text:00402725 66 8c 9d 74 fd ff ff             data16 mov %ds,-0x28c(%ebp)
                           .text:0040272c 66 8c 85 70 fd ff ff             data16 mov %es,-0x290(%ebp)
                           .text:00402733 66 8c a5 6c fd ff ff             data16 mov %fs,-0x294(%ebp)
                           .text:0040273a 66 8c ad 68 fd ff ff             data16 mov %gs,-0x298(%ebp)
                           .text:00402741 9c                               pushf  
                           .text:00402742 8f 85 9c fd ff ff                popl   -0x264(%ebp)
                           .text:00402748 8b 45 04                         mov    0x4(%ebp),%eax
                           .text:0040274b 89 85 94 fd ff ff                mov    %eax,-0x26c(%ebp)
                           .text:00402751 8d 45 04                         lea    0x4(%ebp),%eax
                           .text:00402754 89 85 a0 fd ff ff                mov    %eax,-0x260(%ebp)
                           .text:0040275a c7 85 dc fc ff ff 01 00 01 00    movl   $0x10001,-0x324(%ebp)
                           .text:00402764 8b 40 fc                         mov    -0x4(%eax),%eax
                           .text:00402767 6a 50                            push   $0x50
                           .text:00402769 89 85 90 fd ff ff                mov    %eax,-0x270(%ebp)
                           .text:0040276f 8d 45 a8                         lea    -0x58(%ebp),%eax
                           .text:00402772 56                               push   %esi
                           .text:00402773 50                               push   %eax
                           .text:00402774 e8 bf 03 00 00                   call   0x00402b38
                           .text:00402779 8b 45 04                         mov    0x4(%ebp),%eax
                           .text:0040277c 83 c4 0c                         add    $0xc,%esp
                           .text:0040277f c7 45 a8 15 00 00 40             movl   $0x40000015,-0x58(%ebp)
                           .text:00402786 c7 45 ac 01 00 00 00             movl   $0x1,-0x54(%ebp)
                           .text:0040278d 89 45 b4                         mov    %eax,-0x4c(%ebp)
                           .text:00402790 ff 15 30 30 40 00                call   *0x403030
                           .text:00402796 56                               push   %esi
                           .text:00402797 8d 58 ff                         lea    -0x1(%eax),%ebx
                           .text:0040279a f7 db                            neg    %ebx
                           .text:0040279c 8d 45 a8                         lea    -0x58(%ebp),%eax
                           .text:0040279f 89 45 f8                         mov    %eax,-0x8(%ebp)
                           .text:004027a2 8d 85 dc fc ff ff                lea    -0x324(%ebp),%eax
                           .text:004027a8 1a db                            sbb    %bl,%bl
                           .text:004027aa 89 45 fc                         mov    %eax,-0x4(%ebp)
                           .text:004027ad fe c3                            inc    %bl
                           .text:004027af ff 15 10 30 40 00                call   *0x403010
                           .text:004027b5 8d 45 f8                         lea    -0x8(%ebp),%eax
                           .text:004027b8 50                               push   %eax
                           .text:004027b9 ff 15 0c 30 40 00                call   *0x40300c
                           .text:004027bf 85 c0                            test   %eax,%eax
                           .text:004027c1 75 0d                            jne    0x004027d0
                           .text:004027c3 0f b6 c3                         movzbl %bl,%eax
                           .text:004027c6 f7 d8                            neg    %eax
                           .text:004027c8 1b c0                            sbb    %eax,%eax
                           .text:004027ca 21 05 90 53 40 00                and    %eax,0x405390
                           .text:004027d0 5e                               pop    %esi
                           .text:004027d1 5b                               pop    %ebx
                           .text:004027d2 8b e5                            mov    %ebp,%esp
                           .text:004027d4 5d                               pop    %ebp
                           .text:004027d5 c3                               ret    
                           .text:004027d6 55                               push   %ebp
                           .text:004027d7 8b ec                            mov    %esp,%ebp
                           .text:004027d9 83 ec 44                         sub    $0x44,%esp
                           .text:004027dc 6a 44                            push   $0x44
                           .text:004027de 8d 45 bc                         lea    -0x44(%ebp),%eax
                           .text:004027e1 6a 00                            push   $0x0
                           .text:004027e3 50                               push   %eax
                           .text:004027e4 e8 4f 03 00 00                   call   0x00402b38
                           .text:004027e9 83 c4 0c                         add    $0xc,%esp
                           .text:004027ec 8d 45 bc                         lea    -0x44(%ebp),%eax
                           .text:004027ef 50                               push   %eax
                           .text:004027f0 ff 15 34 30 40 00                call   *0x403034
                           .text:004027f6 f6 45 e8 01                      testb  $0x1,-0x18(%ebp)
                           .text:004027fa 74 06                            je     0x00402802
                           .text:004027fc 0f b7 45 ec                      movzwl -0x14(%ebp),%eax
                           .text:00402800 eb 03                            jmp    0x00402805
                           .text:00402802 6a 0a                            push   $0xa
                           .text:00402804 58                               pop    %eax
                           .text:00402805 8b e5                            mov    %ebp,%esp
                           .text:00402807 5d                               pop    %ebp
                           .text:00402808 c3                               ret    
                           .text:00402809 6a 00                            push   $0x0
                           .text:0040280b ff 15 38 30 40 00                call   *0x403038
                           .text:00402811 8b c8                            mov    %eax,%ecx
                           .text:00402813 85 c9                            test   %ecx,%ecx
                           .text:00402815 75 03                            jne    0x0040281a
                           .text:00402817 32 c0                            xor    %al,%al
                           .text:00402819 c3                               ret    
                           .text:0040281a b8 4d 5a 00 00                   mov    $0x5a4d,%eax
                           .text:0040281f 66 39 01                         cmp    %ax,(%ecx)
                           .text:00402822 75 f3                            jne    0x00402817
                           .text:00402824 8b 41 3c                         mov    0x3c(%ecx),%eax
                           .text:00402827 03 c1                            add    %ecx,%eax
                           .text:00402829 81 38 50 45 00 00                cmpl   $0x4550,(%eax)
                           .text:0040282f 75 e6                            jne    0x00402817
                           .text:00402831 b9 0b 01 00 00                   mov    $0x10b,%ecx
                           .text:00402836 66 39 48 18                      cmp    %cx,0x18(%eax)
                           .text:0040283a 75 db                            jne    0x00402817
                           .text:0040283c 83 78 74 0e                      cmpl   $0xe,0x74(%eax)
                           .text:00402840 76 d5                            jbe    0x00402817
                           .text:00402842 83 b8 e8 00 00 00 00             cmpl   $0x0,0xe8(%eax)
                           .text:00402849 0f 95 c0                         setne  %al
                           .text:0040284c c3                               ret    
                           .text:0040284d 68 59 28 40 00                   push   $0x402859
                           .text:00402852 ff 15 10 30 40 00                call   *0x403010
                           .text:00402858 c3                               ret    
                           .text:00402859 55                               push   %ebp
                           .text:0040285a 8b ec                            mov    %esp,%ebp
                           .text:0040285c 8b 45 08                         mov    0x8(%ebp),%eax
                           .text:0040285f 8b 00                            mov    (%eax),%eax
                           .text:00402861 81 38 63 73 6d e0                cmpl   $0xe06d7363,(%eax)
                           .text:00402867 75 25                            jne    0x0040288e
                           .text:00402869 83 78 10 03                      cmpl   $0x3,0x10(%eax)
                           .text:0040286d 75 1f                            jne    0x0040288e
                           .text:0040286f 8b 40 14                         mov    0x14(%eax),%eax
                           .text:00402872 3d 20 05 93 19                   cmp    $0x19930520,%eax
                           .text:00402877 74 1b                            je     0x00402894
                           .text:00402879 3d 21 05 93 19                   cmp    $0x19930521,%eax
                           .text:0040287e 74 14                            je     0x00402894
                           .text:00402880 3d 22 05 93 19                   cmp    $0x19930522,%eax
                           .text:00402885 74 0d                            je     0x00402894
                           .text:00402887 3d 00 40 99 01                   cmp    $0x1994000,%eax
                           .text:0040288c 74 06                            je     0x00402894
                           .text:0040288e 33 c0                            xor    %eax,%eax
                           .text:00402890 5d                               pop    %ebp
                           .text:00402891 c2 04 00                         ret    $0x4
                           .text:00402894 e8 29 03 00 00                   call   0x00402bc2
                           .text:00402899 cc                               int3   
                           .text:0040289a 53                               push   %ebx
                           .text:0040289b 56                               push   %esi
                           .text:0040289c be 2c 3b 40 00                   mov    $0x403b2c,%esi
                           .text:004028a1 bb 2c 3b 40 00                   mov    $0x403b2c,%ebx
                           .text:004028a6 3b f3                            cmp    %ebx,%esi
                           .text:004028a8 73 18                            jae    0x004028c2
                           .text:004028aa 57                               push   %edi
                           .text:004028ab 8b 3e                            mov    (%esi),%edi
                           .text:004028ad 85 ff                            test   %edi,%edi
                           .text:004028af 74 09                            je     0x004028ba
                           .text:004028b1 8b cf                            mov    %edi,%ecx
                           .text:004028b3 e8 38 00 00 00                   call   0x004028f0
                           .text:004028b8 ff d7                            call   *%edi
                           .text:004028ba 83 c6 04                         add    $0x4,%esi
                           .text:004028bd 3b f3                            cmp    %ebx,%esi
                           .text:004028bf 72 ea                            jb     0x004028ab
                           .text:004028c1 5f                               pop    %edi
                           .text:004028c2 5e                               pop    %esi
                           .text:004028c3 5b                               pop    %ebx
                           .text:004028c4 c3                               ret    
                           .text:004028c5 53                               push   %ebx
                           .text:004028c6 56                               push   %esi
                           .text:004028c7 be 34 3b 40 00                   mov    $0x403b34,%esi
                           .text:004028cc bb 34 3b 40 00                   mov    $0x403b34,%ebx
                           .text:004028d1 3b f3                            cmp    %ebx,%esi
                           .text:004028d3 73 18                            jae    0x004028ed
                           .text:004028d5 57                               push   %edi
                           .text:004028d6 8b 3e                            mov    (%esi),%edi
                           .text:004028d8 85 ff                            test   %edi,%edi
                           .text:004028da 74 09                            je     0x004028e5
                           .text:004028dc 8b cf                            mov    %edi,%ecx
                           .text:004028de e8 0d 00 00 00                   call   0x004028f0
                           .text:004028e3 ff d7                            call   *%edi
                           .text:004028e5 83 c6 04                         add    $0x4,%esi
                           .text:004028e8 3b f3                            cmp    %ebx,%esi
                           .text:004028ea 72 ea                            jb     0x004028d6
                           .text:004028ec 5f                               pop    %edi
                           .text:004028ed 5e                               pop    %esi
                           .text:004028ee 5b                               pop    %ebx
                           .text:004028ef c3                               ret    
                           .text:004028f0 ff 25 3c 31 40 00                jmp    *0x40313c
                           .text:004028f6 cc                               int3   
                           .text:004028f7 cc                               int3   
                           .text:004028f8 cc                               int3   
                           .text:004028f9 cc                               int3   
                           .text:004028fa cc                               int3   
                           .text:004028fb cc                               int3   
                           .text:004028fc cc                               int3   
                           .text:004028fd cc                               int3   
                           .text:004028fe cc                               int3   
                           .text:004028ff cc                               int3   
                           .text:00402900 68 5b 29 40 00                   push   $0x40295b
                           .text:00402905 64 ff 35 00 00 00 00             pushl  %fs:0x0
                           .text:0040290c 8b 44 24 10                      mov    0x10(%esp),%eax
                           .text:00402910 89 6c 24 10                      mov    %ebp,0x10(%esp)
                           .text:00402914 8d 6c 24 10                      lea    0x10(%esp),%ebp
                           .text:00402918 2b e0                            sub    %eax,%esp
                           .text:0040291a 53                               push   %ebx
                           .text:0040291b 56                               push   %esi
                           .text:0040291c 57                               push   %edi
                           .text:0040291d a1 04 50 40 00                   mov    0x405004,%eax
                           .text:00402922 31 45 fc                         xor    %eax,-0x4(%ebp)
                           .text:00402925 33 c5                            xor    %ebp,%eax
                           .text:00402927 50                               push   %eax
                           .text:00402928 89 65 e8                         mov    %esp,-0x18(%ebp)
                           .text:0040292b ff 75 f8                         pushl  -0x8(%ebp)
                           .text:0040292e 8b 45 fc                         mov    -0x4(%ebp),%eax
                           .text:00402931 c7 45 fc fe ff ff ff             movl   $0xfffffffe,-0x4(%ebp)
                           .text:00402938 89 45 f8                         mov    %eax,-0x8(%ebp)
                           .text:0040293b 8d 45 f0                         lea    -0x10(%ebp),%eax
                           .text:0040293e 64 a3 00 00 00 00                mov    %eax,%fs:0x0
                           .text:00402944 f2 c3                            bnd ret 
                           .text:00402946 8b 4d f0                         mov    -0x10(%ebp),%ecx
                           .text:00402949 64 89 0d 00 00 00 00             mov    %ecx,%fs:0x0
                           .text:00402950 59                               pop    %ecx
                           .text:00402951 5f                               pop    %edi
                           .text:00402952 5f                               pop    %edi
                           .text:00402953 5e                               pop    %esi
                           .text:00402954 5b                               pop    %ebx
                           .text:00402955 8b e5                            mov    %ebp,%esp
                           .text:00402957 5d                               pop    %ebp
                           .text:00402958 51                               push   %ecx
                           .text:00402959 f2 c3                            bnd ret 
                           .text:0040295b 55                               push   %ebp
                           .text:0040295c 8b ec                            mov    %esp,%ebp
                           .text:0040295e ff 75 14                         pushl  0x14(%ebp)
                           .text:00402961 ff 75 10                         pushl  0x10(%ebp)
                           .text:00402964 ff 75 0c                         pushl  0xc(%ebp)
                           .text:00402967 ff 75 08                         pushl  0x8(%ebp)
                           .text:0040296a 68 d0 1f 40 00                   push   $0x401fd0
                           .text:0040296f 68 04 50 40 00                   push   $0x405004
                           .text:00402974 e8 c5 01 00 00                   call   0x00402b3e
                           .text:00402979 83 c4 18                         add    $0x18,%esp
                           .text:0040297c 5d                               pop    %ebp
                           .text:0040297d c3                               ret    
                           .text:0040297e 55                               push   %ebp
                           .text:0040297f 8b ec                            mov    %esp,%ebp
                           .text:00402981 83 25 94 53 40 00 00             andl   $0x0,0x405394
                           .text:00402988 83 ec 2c                         sub    $0x2c,%esp
                           .text:0040298b 53                               push   %ebx
                           .text:0040298c 33 db                            xor    %ebx,%ebx
                           .text:0040298e 43                               inc    %ebx
                           .text:0040298f 09 1d 10 50 40 00                or     %ebx,0x405010
                           .text:00402995 6a 0a                            push   $0xa
                           .text:00402997 e8 2c 02 00 00                   call   0x00402bc8
                           .text:0040299c 85 c0                            test   %eax,%eax
                           .text:0040299e 0f 84 74 01 00 00                je     0x00402b18
                           .text:004029a4 83 65 ec 00                      andl   $0x0,-0x14(%ebp)
                           .text:004029a8 33 c0                            xor    %eax,%eax
                           .text:004029aa 83 0d 10 50 40 00 02             orl    $0x2,0x405010
                           .text:004029b1 33 c9                            xor    %ecx,%ecx
                           .text:004029b3 56                               push   %esi
                           .text:004029b4 57                               push   %edi
                           .text:004029b5 89 1d 94 53 40 00                mov    %ebx,0x405394
                           .text:004029bb 8d 7d d4                         lea    -0x2c(%ebp),%edi
                           .text:004029be 53                               push   %ebx
                           .text:004029bf 0f a2                            cpuid  
                           .text:004029c1 8b f3                            mov    %ebx,%esi
                           .text:004029c3 5b                               pop    %ebx
                           .text:004029c4 89 07                            mov    %eax,(%edi)
                           .text:004029c6 89 77 04                         mov    %esi,0x4(%edi)
                           .text:004029c9 89 4f 08                         mov    %ecx,0x8(%edi)
                           .text:004029cc 89 57 0c                         mov    %edx,0xc(%edi)
                           .text:004029cf 8b 45 d4                         mov    -0x2c(%ebp),%eax
                           .text:004029d2 8b 4d e0                         mov    -0x20(%ebp),%ecx
                           .text:004029d5 89 45 f4                         mov    %eax,-0xc(%ebp)
                           .text:004029d8 81 f1 69 6e 65 49                xor    $0x49656e69,%ecx
                           .text:004029de 8b 45 dc                         mov    -0x24(%ebp),%eax
                           .text:004029e1 35 6e 74 65 6c                   xor    $0x6c65746e,%eax
                           .text:004029e6 0b c8                            or     %eax,%ecx
                           .text:004029e8 8b 45 d8                         mov    -0x28(%ebp),%eax
                           .text:004029eb 35 47 65 6e 75                   xor    $0x756e6547,%eax
                           .text:004029f0 0b c8                            or     %eax,%ecx
                           .text:004029f2 f7 d9                            neg    %ecx
                           .text:004029f4 6a 01                            push   $0x1
                           .text:004029f6 58                               pop    %eax
                           .text:004029f7 1a c9                            sbb    %cl,%cl
                           .text:004029f9 6a 00                            push   $0x0
                           .text:004029fb 80 c1 01                         add    $0x1,%cl
                           .text:004029fe 59                               pop    %ecx
                           .text:004029ff 53                               push   %ebx
                           .text:00402a00 0f a2                            cpuid  
                           .text:00402a02 8b f3                            mov    %ebx,%esi
                           .text:00402a04 5b                               pop    %ebx
                           .text:00402a05 89 07                            mov    %eax,(%edi)
                           .text:00402a07 89 77 04                         mov    %esi,0x4(%edi)
                           .text:00402a0a 89 4f 08                         mov    %ecx,0x8(%edi)
                           .text:00402a0d 89 57 0c                         mov    %edx,0xc(%edi)
                           .text:00402a10 74 43                            je     0x00402a55
                           .text:00402a12 8b 45 d4                         mov    -0x2c(%ebp),%eax
                           .text:00402a15 25 f0 3f ff 0f                   and    $0xfff3ff0,%eax
                           .text:00402a1a 3d c0 06 01 00                   cmp    $0x106c0,%eax
                           .text:00402a1f 74 23                            je     0x00402a44
                           .text:00402a21 3d 60 06 02 00                   cmp    $0x20660,%eax
                           .text:00402a26 74 1c                            je     0x00402a44
                           .text:00402a28 3d 70 06 02 00                   cmp    $0x20670,%eax
                           .text:00402a2d 74 15                            je     0x00402a44
                           .text:00402a2f 3d 50 06 03 00                   cmp    $0x30650,%eax
                           .text:00402a34 74 0e                            je     0x00402a44
                           .text:00402a36 3d 60 06 03 00                   cmp    $0x30660,%eax
                           .text:00402a3b 74 07                            je     0x00402a44
                           .text:00402a3d 3d 70 06 03 00                   cmp    $0x30670,%eax
                           .text:00402a42 75 11                            jne    0x00402a55
                           .text:00402a44 8b 3d 98 53 40 00                mov    0x405398,%edi
                           .text:00402a4a 83 cf 01                         or     $0x1,%edi
                           .text:00402a4d 89 3d 98 53 40 00                mov    %edi,0x405398
                           .text:00402a53 eb 06                            jmp    0x00402a5b
                           .text:00402a55 8b 3d 98 53 40 00                mov    0x405398,%edi
                           .text:00402a5b 83 7d f4 07                      cmpl   $0x7,-0xc(%ebp)
                           .text:00402a5f 8b 45 e0                         mov    -0x20(%ebp),%eax
                           .text:00402a62 89 45 e4                         mov    %eax,-0x1c(%ebp)
                           .text:00402a65 8b 45 dc                         mov    -0x24(%ebp),%eax
                           .text:00402a68 89 45 f8                         mov    %eax,-0x8(%ebp)
                           .text:00402a6b 89 45 e8                         mov    %eax,-0x18(%ebp)
                           .text:00402a6e 7c 32                            jl     0x00402aa2
                           .text:00402a70 6a 07                            push   $0x7
                           .text:00402a72 58                               pop    %eax
                           .text:00402a73 33 c9                            xor    %ecx,%ecx
                           .text:00402a75 53                               push   %ebx
                           .text:00402a76 0f a2                            cpuid  
                           .text:00402a78 8b f3                            mov    %ebx,%esi
                           .text:00402a7a 5b                               pop    %ebx
                           .text:00402a7b 8d 5d d4                         lea    -0x2c(%ebp),%ebx
                           .text:00402a7e 89 03                            mov    %eax,(%ebx)
                           .text:00402a80 89 73 04                         mov    %esi,0x4(%ebx)
                           .text:00402a83 89 4b 08                         mov    %ecx,0x8(%ebx)
                           .text:00402a86 89 53 0c                         mov    %edx,0xc(%ebx)
                           .text:00402a89 8b 45 d8                         mov    -0x28(%ebp),%eax
                           .text:00402a8c a9 00 02 00 00                   test   $0x200,%eax
                           .text:00402a91 89 45 ec                         mov    %eax,-0x14(%ebp)
                           .text:00402a94 8b 45 f8                         mov    -0x8(%ebp),%eax
                           .text:00402a97 74 09                            je     0x00402aa2
                           .text:00402a99 83 cf 02                         or     $0x2,%edi
                           .text:00402a9c 89 3d 98 53 40 00                mov    %edi,0x405398
                           .text:00402aa2 5f                               pop    %edi
                           .text:00402aa3 5e                               pop    %esi
                           .text:00402aa4 a9 00 00 10 00                   test   $0x100000,%eax
                           .text:00402aa9 74 6d                            je     0x00402b18
                           .text:00402aab 83 0d 10 50 40 00 04             orl    $0x4,0x405010
                           .text:00402ab2 c7 05 94 53 40 00 02 00 00 00    movl   $0x2,0x405394
                           .text:00402abc a9 00 00 00 08                   test   $0x8000000,%eax
                           .text:00402ac1 74 55                            je     0x00402b18
                           .text:00402ac3 a9 00 00 00 10                   test   $0x10000000,%eax
                           .text:00402ac8 74 4e                            je     0x00402b18
                           .text:00402aca 33 c9                            xor    %ecx,%ecx
                           .text:00402acc 0f 01 d0                         xgetbv 
                           .text:00402acf 89 45 f0                         mov    %eax,-0x10(%ebp)
                           .text:00402ad2 89 55 f4                         mov    %edx,-0xc(%ebp)
                           .text:00402ad5 8b 45 f0                         mov    -0x10(%ebp),%eax
                           .text:00402ad8 8b 4d f4                         mov    -0xc(%ebp),%ecx
                           .text:00402adb 83 e0 06                         and    $0x6,%eax
                           .text:00402ade 33 c9                            xor    %ecx,%ecx
                           .text:00402ae0 83 f8 06                         cmp    $0x6,%eax
                           .text:00402ae3 75 33                            jne    0x00402b18
                           .text:00402ae5 85 c9                            test   %ecx,%ecx
                           .text:00402ae7 75 2f                            jne    0x00402b18
                           .text:00402ae9 a1 10 50 40 00                   mov    0x405010,%eax
                           .text:00402aee 83 c8 08                         or     $0x8,%eax
                           .text:00402af1 c7 05 94 53 40 00 03 00 00 00    movl   $0x3,0x405394
                           .text:00402afb f6 45 ec 20                      testb  $0x20,-0x14(%ebp)
                           .text:00402aff a3 10 50 40 00                   mov    %eax,0x405010
                           .text:00402b04 74 12                            je     0x00402b18
                           .text:00402b06 83 c8 20                         or     $0x20,%eax
                           .text:00402b09 c7 05 94 53 40 00 05 00 00 00    movl   $0x5,0x405394
                           .text:00402b13 a3 10 50 40 00                   mov    %eax,0x405010
                           .text:00402b18 33 c0                            xor    %eax,%eax
                           .text:00402b1a 5b                               pop    %ebx
                           .text:00402b1b 8b e5                            mov    %ebp,%esp
                           .text:00402b1d 5d                               pop    %ebp
                           .text:00402b1e c3                               ret    
                           .text:00402b1f 33 c0                            xor    %eax,%eax
                           .text:00402b21 39 05 14 50 40 00                cmp    %eax,0x405014
                           .text:00402b27 0f 95 c0                         setne  %al
                           .text:00402b2a c3                               ret    
                           .text:00402b2b c3                               ret    
                           .text:00402b2c ff 25 ac 30 40 00                jmp    *0x4030ac
                           .text:00402b32 ff 25 b0 30 40 00                jmp    *0x4030b0
                           .text:00402b38 ff 25 a8 30 40 00                jmp    *0x4030a8
                           .text:00402b3e ff 25 b4 30 40 00                jmp    *0x4030b4
                           .text:00402b44 ff 25 f8 30 40 00                jmp    *0x4030f8
                           .text:00402b4a ff 25 fc 30 40 00                jmp    *0x4030fc
                           .text:00402b50 ff 25 dc 30 40 00                jmp    *0x4030dc
                           .text:00402b56 ff 25 0c 31 40 00                jmp    *0x40310c
                           .text:00402b5c ff 25 24 31 40 00                jmp    *0x403124
                           .text:00402b62 ff 25 20 31 40 00                jmp    *0x403120
                           .text:00402b68 ff 25 1c 31 40 00                jmp    *0x40311c
                           .text:00402b6e ff 25 18 31 40 00                jmp    *0x403118
                           .text:00402b74 ff 25 14 31 40 00                jmp    *0x403114
                           .text:00402b7a ff 25 10 31 40 00                jmp    *0x403110
                           .text:00402b80 ff 25 34 31 40 00                jmp    *0x403134
                           .text:00402b86 ff 25 08 31 40 00                jmp    *0x403108
                           .text:00402b8c ff 25 04 31 40 00                jmp    *0x403104
                           .text:00402b92 ff 25 00 31 40 00                jmp    *0x403100
                           .text:00402b98 ff 25 d4 30 40 00                jmp    *0x4030d4
                           .text:00402b9e ff 25 cc 30 40 00                jmp    *0x4030cc
                           .text:00402ba4 ff 25 30 31 40 00                jmp    *0x403130
                           .text:00402baa ff 25 f4 30 40 00                jmp    *0x4030f4
                           .text:00402bb0 ff 25 28 31 40 00                jmp    *0x403128
                           .text:00402bb6 ff 25 e8 30 40 00                jmp    *0x4030e8
                           .text:00402bbc ff 25 ec 30 40 00                jmp    *0x4030ec
                           .text:00402bc2 ff 25 f0 30 40 00                jmp    *0x4030f0
                           .text:00402bc8 ff 25 1c 30 40 00                jmp    *0x40301c
                           .text:00402bce b0 01                            mov    $0x1,%al
                           .text:00402bd0 c3                               ret    
                           .text:00402bd1 cc                               int3   
                           .text:00402bd2 cc                               int3   
                           .text:00402bd3 cc                               int3   
                           .text:00402bd4 cc                               int3   
                           .text:00402bd5 cc                               int3   
                           .text:00402bd6 cc                               int3   
                           .text:00402bd7 cc                               int3   
                           .text:00402bd8 cc                               int3   
                           .text:00402bd9 cc                               int3   
                           .text:00402bda cc                               int3   
                           .text:00402bdb cc                               int3   
                           .text:00402bdc cc                               int3   
                           .text:00402bdd cc                               int3   
                           .text:00402bde cc                               int3   
                           .text:00402bdf cc                               int3   
                           .text:00402be0 b9 01 00 00 00                   mov    $0x1,%ecx
                           .text:00402be5 f2 0f 10 2d 08 37 40 00          movsd  0x403708,%xmm5
                           .text:00402bed eb 1c                            jmp    0x00402c0b
                           .text:00402bef b9 02 00 00 00                   mov    $0x2,%ecx
                           .text:00402bf4 f2 0f 10 2d 10 37 40 00          movsd  0x403710,%xmm5
                           .text:00402bfc eb 0d                            jmp    0x00402c0b
                           .text:00402bfe b9 03 00 00 00                   mov    $0x3,%ecx
                           .text:00402c03 f2 0f 10 2d 08 37 40 00          movsd  0x403708,%xmm5
                           .text:00402c0b 66 0f 7e c0                      movd   %xmm0,%eax
                           .text:00402c0f 25 ff ff ff 7f                   and    $0x7fffffff,%eax
                           .text:00402c14 3d 00 00 80 7f                   cmp    $0x7f800000,%eax
                           .text:00402c19 0f 83 4c 01 00 00                jae    0x00402d6b
                           .text:00402c1f f3 0f 5a c0                      cvtss2sd %xmm0,%xmm0
                           .text:00402c23 83 f9 02                         cmp    $0x2,%ecx
                           .text:00402c26 75 18                            jne    0x00402c40
                           .text:00402c28 f2 0f 10 15 28 37 40 00          movsd  0x403728,%xmm2
                           .text:00402c30 66 0f 2f c2                      comisd %xmm2,%xmm0
                           .text:00402c34 76 0a                            jbe    0x00402c40
                           .text:00402c36 ba 10 00 00 00                   mov    $0x10,%edx
                           .text:00402c3b e8 3d 01 00 00                   call   0x00402d7d
                           .text:00402c40 66 0f 2f c5                      comisd %xmm5,%xmm0
                           .text:00402c44 0f 83 21 01 00 00                jae    0x00402d6b
                           .text:00402c4a f2 0f 10 35 00 37 40 00          movsd  0x403700,%xmm6
                           .text:00402c52 66 0f 2f c6                      comisd %xmm6,%xmm0
                           .text:00402c56 0f 82 0f 01 00 00                jb     0x00402d6b
                           .text:00402c5c 66 0f 6f c8                      movdqa %xmm0,%xmm1
                           .text:00402c60 66 0f 73 f1 01                   psllq  $0x1,%xmm1
                           .text:00402c65 66 0f 73 d1 01                   psrlq  $0x1,%xmm1
                           .text:00402c6a 83 f9 01                         cmp    $0x1,%ecx
                           .text:00402c6d 74 3a                            je     0x00402ca9
                           .text:00402c6f f2 0f 10 15 20 37 40 00          movsd  0x403720,%xmm2
                           .text:00402c77 66 0f 2f ca                      comisd %xmm2,%xmm1
                           .text:00402c7b 77 2c                            ja     0x00402ca9
                           .text:00402c7d 66 0f 57 d2                      xorpd  %xmm2,%xmm2
                           .text:00402c81 66 0f 2f ca                      comisd %xmm2,%xmm1
                           .text:00402c85 74 22                            je     0x00402ca9
                           .text:00402c87 50                               push   %eax
                           .text:00402c88 9b d9 3c 24                      fstcw  (%esp)
                           .text:00402c8c 66 8b 04 24                      mov    (%esp),%ax
                           .text:00402c90 66 a9 10 00                      test   $0x10,%ax
                           .text:00402c94 58                               pop    %eax
                           .text:00402c95 75 12                            jne    0x00402ca9
                           .text:00402c97 ba 02 00 00 00                   mov    $0x2,%edx
                           .text:00402c9c e8 dc 00 00 00                   call   0x00402d7d
                           .text:00402ca1 33 c0                            xor    %eax,%eax
                           .text:00402ca3 ba 00 00 00 80                   mov    $0x80000000,%edx
                           .text:00402ca8 c3                               ret    
                           .text:00402ca9 66 0f 57 f6                      xorpd  %xmm6,%xmm6
                           .text:00402cad 66 0f 2f ce                      comisd %xmm6,%xmm1
                           .text:00402cb1 0f 84 a6 00 00 00                je     0x00402d5d
                           .text:00402cb7 f2 0f 10 1d e0 36 40 00          movsd  0x4036e0,%xmm3
                           .text:00402cbf f2 0f 10 25 e8 36 40 00          movsd  0x4036e8,%xmm4
                           .text:00402cc7 66 0f 6e 2d 40 37 40 00          movd   0x403740,%xmm5
                           .text:00402ccf 66 0f 6f f0                      movdqa %xmm0,%xmm6
                           .text:00402cd3 f2 0f c2 f1 00                   cmpeqsd %xmm1,%xmm6
                           .text:00402cd8 66 0f 6f d1                      movdqa %xmm1,%xmm2
                           .text:00402cdc 66 0f db d3                      pand   %xmm3,%xmm2
                           .text:00402ce0 66 0f eb d4                      por    %xmm4,%xmm2
                           .text:00402ce4 66 0f 73 d1 34                   psrlq  $0x34,%xmm1
                           .text:00402ce9 66 0f 6f e1                      movdqa %xmm1,%xmm4
                           .text:00402ced 66 0f fb e5                      psubq  %xmm5,%xmm4
                           .text:00402cf1 66 0f 6f da                      movdqa %xmm2,%xmm3
                           .text:00402cf5 66 0f f3 dc                      psllq  %xmm4,%xmm3
                           .text:00402cf9 66 0f 6f e5                      movdqa %xmm5,%xmm4
                           .text:00402cfd 66 0f fb e1                      psubq  %xmm1,%xmm4
                           .text:00402d01 66 0f 6f fa                      movdqa %xmm2,%xmm7
                           .text:00402d05 66 0f d3 fc                      psrlq  %xmm4,%xmm7
                           .text:00402d09 66 0f 66 cd                      pcmpgtd %xmm5,%xmm1
                           .text:00402d0d 66 0f 62 c9                      punpckldq %xmm1,%xmm1
                           .text:00402d11 66 0f db d9                      pand   %xmm1,%xmm3
                           .text:00402d15 66 0f df cf                      pandn  %xmm7,%xmm1
                           .text:00402d19 66 0f eb cb                      por    %xmm3,%xmm1
                           .text:00402d1d 66 0f ef ed                      pxor   %xmm5,%xmm5
                           .text:00402d21 66 0f fb e9                      psubq  %xmm1,%xmm5
                           .text:00402d25 66 0f db ce                      pand   %xmm6,%xmm1
                           .text:00402d29 66 0f df f5                      pandn  %xmm5,%xmm6
                           .text:00402d2d 66 0f eb f1                      por    %xmm1,%xmm6
                           .text:00402d31 66 0f 7e e0                      movd   %xmm4,%eax
                           .text:00402d35 83 f8 00                         cmp    $0x0,%eax
                           .text:00402d38 7e 23                            jle    0x00402d5d
                           .text:00402d3a 66 0f f3 fc                      psllq  %xmm4,%xmm7
                           .text:00402d3e 66 0f ef d7                      pxor   %xmm7,%xmm2
                           .text:00402d42 66 0f 7e d0                      movd   %xmm2,%eax
                           .text:00402d46 66 0f 73 da 04                   psrldq $0x4,%xmm2
                           .text:00402d4b 66 0f 7e d2                      movd   %xmm2,%edx
                           .text:00402d4f 0b c2                            or     %edx,%eax
                           .text:00402d51 74 0a                            je     0x00402d5d
                           .text:00402d53 ba 10 00 00 00                   mov    $0x10,%edx
                           .text:00402d58 e8 20 00 00 00                   call   0x00402d7d
                           .text:00402d5d 66 0f 7e f0                      movd   %xmm6,%eax
                           .text:00402d61 66 0f 73 de 04                   psrldq $0x4,%xmm6
                           .text:00402d66 66 0f 7e f2                      movd   %xmm6,%edx
                           .text:00402d6a c3                               ret    
                           .text:00402d6b ba 08 00 00 00                   mov    $0x8,%edx
                           .text:00402d70 e8 08 00 00 00                   call   0x00402d7d
                           .text:00402d75 33 c0                            xor    %eax,%eax
                           .text:00402d77 ba 00 00 00 80                   mov    $0x80000000,%edx
                           .text:00402d7c c3                               ret    
                           .text:00402d7d 83 ec 20                         sub    $0x20,%esp
                           .text:00402d80 9b d9 3c 24                      fstcw  (%esp)
                           .text:00402d84 0f b7 04 24                      movzwl (%esp),%eax
                           .text:00402d88 83 fa 08                         cmp    $0x8,%edx
                           .text:00402d8b 74 08                            je     0x00402d95
                           .text:00402d8d 84 82 2f 37 40 00                test   %al,0x40372f(%edx)
                           .text:00402d93 75 28                            jne    0x00402dbd
                           .text:00402d95 d9 2d 50 37 40 00                fldcw  0x403750
                           .text:00402d9b 89 14 24                         mov    %edx,(%esp)
                           .text:00402d9e c7 44 24 04 00 00 00 00          movl   $0x0,0x4(%esp)
                           .text:00402da6 f2 0f 11 44 24 08                movsd  %xmm0,0x8(%esp)
                           .text:00402dac f2 0f 11 44 24 10                movsd  %xmm0,0x10(%esp)
                           .text:00402db2 89 44 24 18                      mov    %eax,0x18(%esp)
                           .text:00402db6 e8 9d 01 00 00                   call   0x00402f58
                           .text:00402dbb dd d8                            fstp   %st(0)
                           .text:00402dbd 83 c4 20                         add    $0x20,%esp
                           .text:00402dc0 c3                               ret    
                           .text:00402dc1 b9 01 00 00 00                   mov    $0x1,%ecx
                           .text:00402dc6 f2 0f 10 2d 08 37 40 00          movsd  0x403708,%xmm5
                           .text:00402dce eb 1c                            jmp    0x00402dec
                           .text:00402dd0 b9 04 00 00 00                   mov    $0x4,%ecx
                           .text:00402dd5 f2 0f 10 2d 10 37 40 00          movsd  0x403710,%xmm5
                           .text:00402ddd eb 0d                            jmp    0x00402dec
                           .text:00402ddf b9 05 00 00 00                   mov    $0x5,%ecx
                           .text:00402de4 f2 0f 10 2d 08 37 40 00          movsd  0x403708,%xmm5
                           .text:00402dec 66 0f 6f c8                      movdqa %xmm0,%xmm1
                           .text:00402df0 66 0f 73 d9 04                   psrldq $0x4,%xmm1
                           .text:00402df5 66 0f 7e c8                      movd   %xmm1,%eax
                           .text:00402df9 25 ff ff ff 7f                   and    $0x7fffffff,%eax
                           .text:00402dfe 3d 00 00 f0 7f                   cmp    $0x7ff00000,%eax
                           .text:00402e03 0f 83 62 ff ff ff                jae    0x00402d6b
                           .text:00402e09 83 f9 01                         cmp    $0x1,%ecx
                           .text:00402e0c 0f 84 11 fe ff ff                je     0x00402c23
                           .text:00402e12 66 0f 6f c8                      movdqa %xmm0,%xmm1
                           .text:00402e16 66 0f 73 f1 01                   psllq  $0x1,%xmm1
                           .text:00402e1b 66 0f 73 d1 01                   psrlq  $0x1,%xmm1
                           .text:00402e20 f2 0f 10 15 18 37 40 00          movsd  0x403718,%xmm2
                           .text:00402e28 66 0f 2f ca                      comisd %xmm2,%xmm1
                           .text:00402e2c 76 2f                            jbe    0x00402e5d
                           .text:00402e2e 83 f9 04                         cmp    $0x4,%ecx
                           .text:00402e31 74 16                            je     0x00402e49
                           .text:00402e33 ba 01 00 00 00                   mov    $0x1,%edx
                           .text:00402e38 e8 40 ff ff ff                   call   0x00402d7d
                           .text:00402e3d ba 10 00 00 00                   mov    $0x10,%edx
                           .text:00402e42 e8 36 ff ff ff                   call   0x00402d7d
                           .text:00402e47 eb 14                            jmp    0x00402e5d
                           .text:00402e49 ba 10 00 00 00                   mov    $0x10,%edx
                           .text:00402e4e e8 2a ff ff ff                   call   0x00402d7d
                           .text:00402e53 ba 01 00 00 00                   mov    $0x1,%edx
                           .text:00402e58 e8 20 ff ff ff                   call   0x00402d7d
                           .text:00402e5d f2 0f 10 15 20 37 40 00          movsd  0x403720,%xmm2
                           .text:00402e65 66 0f 2f ca                      comisd %xmm2,%xmm1
                           .text:00402e69 73 27                            jae    0x00402e92
                           .text:00402e6b 66 0f 57 d2                      xorpd  %xmm2,%xmm2
                           .text:00402e6f 66 0f 2f ca                      comisd %xmm2,%xmm1
                           .text:00402e73 0f 84 30 fe ff ff                je     0x00402ca9
                           .text:00402e79 ba 02 00 00 00                   mov    $0x2,%edx
                           .text:00402e7e e8 fa fe ff ff                   call   0x00402d7d
                           .text:00402e83 ba 10 00 00 00                   mov    $0x10,%edx
                           .text:00402e88 e8 f0 fe ff ff                   call   0x00402d7d
                           .text:00402e8d e9 17 fe ff ff                   jmp    0x00402ca9
                           .text:00402e92 66 0f 6f d8                      movdqa %xmm0,%xmm3
                           .text:00402e96 83 f9 04                         cmp    $0x4,%ecx
                           .text:00402e99 75 12                            jne    0x00402ead
                           .text:00402e9b f2 0f 10 15 08 37 40 00          movsd  0x403708,%xmm2
                           .text:00402ea3 66 0f 2f da                      comisd %xmm2,%xmm3
                           .text:00402ea7 72 04                            jb     0x00402ead
                           .text:00402ea9 66 0f 5c da                      subpd  %xmm2,%xmm3
                           .text:00402ead 66 0f 6f e3                      movdqa %xmm3,%xmm4
                           .text:00402eb1 66 0f 73 f4 23                   psllq  $0x23,%xmm4
                           .text:00402eb6 66 0f 73 d4 23                   psrlq  $0x23,%xmm4
                           .text:00402ebb 66 0f 7e e0                      movd   %xmm4,%eax
                           .text:00402ebf 0b c0                            or     %eax,%eax
                           .text:00402ec1 74 0a                            je     0x00402ecd
                           .text:00402ec3 ba 10 00 00 00                   mov    $0x10,%edx
                           .text:00402ec8 e8 b0 fe ff ff                   call   0x00402d7d
                           .text:00402ecd 66 0f 2f c5                      comisd %xmm5,%xmm0
                           .text:00402ed1 0f 83 94 fe ff ff                jae    0x00402d6b
                           .text:00402ed7 f2 0f 10 15 00 37 40 00          movsd  0x403700,%xmm2
                           .text:00402edf 66 0f 2f c2                      comisd %xmm2,%xmm0
                           .text:00402ee3 0f 82 82 fe ff ff                jb     0x00402d6b
                           .text:00402ee9 e9 bb fd ff ff                   jmp    0x00402ca9
                           .text:00402eee 8b ff                            mov    %edi,%edi
                           .text:00402ef0 0f 57 c0                         xorps  %xmm0,%xmm0
                           .text:00402ef3 f2 0f 2a c1                      cvtsi2sd %ecx,%xmm0
                           .text:00402ef7 c1 e9 1f                         shr    $0x1f,%ecx
                           .text:00402efa f2 0f 58 04 cd d0 36 40 00       addsd  0x4036d0(,%ecx,8),%xmm0
                           .text:00402f03 85 d2                            test   %edx,%edx
                           .text:00402f05 74 1f                            je     0x00402f26
                           .text:00402f07 0f 57 c9                         xorps  %xmm1,%xmm1
                           .text:00402f0a f2 0f 2a ca                      cvtsi2sd %edx,%xmm1
                           .text:00402f0e c1 ea 1f                         shr    $0x1f,%edx
                           .text:00402f11 f2 0f 58 0c d5 d0 36 40 00       addsd  0x4036d0(,%edx,8),%xmm1
                           .text:00402f1a f2 0f 59 0d d8 36 40 00          mulsd  0x4036d8,%xmm1
                           .text:00402f22 f2 0f 58 c1                      addsd  %xmm1,%xmm0
                           .text:00402f26 c3                               ret    
                           .text:00402f27 8d a4 24 00 00 00 00             lea    0x0(%esp),%esp
                           .text:00402f2e 8b ff                            mov    %edi,%edi
                           .text:00402f30 0f 57 c9                         xorps  %xmm1,%xmm1
                           .text:00402f33 f2 0f 2a ca                      cvtsi2sd %edx,%xmm1
                           .text:00402f37 0f 57 c0                         xorps  %xmm0,%xmm0
                           .text:00402f3a f2 0f 2a c1                      cvtsi2sd %ecx,%xmm0
                           .text:00402f3e c1 e9 1f                         shr    $0x1f,%ecx
                           .text:00402f41 f2 0f 59 0d d8 36 40 00          mulsd  0x4036d8,%xmm1
                           .text:00402f49 f2 0f 58 04 cd d0 36 40 00       addsd  0x4036d0(,%ecx,8),%xmm0
                           .text:00402f52 f2 0f 58 c1                      addsd  %xmm1,%xmm0
                           .text:00402f56 c3                               ret    
                           .text:00402f57 cc                               int3   
                           .text:00402f58 ff 25 e0 30 40 00                jmp    *0x4030e0
                          .rdata:00403000 56                               0x56 'V'
                          .rdata:00403001 3f                               0x3f '?'
                          .rdata:00403002 00                               0x00 
                          .rdata:00403003 00                               0x00 
                          .rdata:00403004 00                               0x00 
                          .rdata:00403005 00                               0x00 
                          .rdata:00403006 00                               0x00 
                          .rdata:00403007 00                               0x00 
                          .rdata:00403008 b0                               0xb0 
                          .rdata:00403009 3d                               0x3d '='
                          .rdata:0040300a 00                               0x00 
                          .rdata:0040300b 00                               0x00 
                          .rdata:0040300c 74                               0x74 't'
                          .rdata:0040300d 42                               0x42 'B'
                          .rdata:0040300e 00                               0x00 
                          .rdata:0040300f 00                               0x00 
                          .rdata:00403010 90                               0x90 
                          .rdata:00403011 42                               0x42 'B'
                          .rdata:00403012 00                               0x00 
                          .rdata:00403013 00                               0x00 
                          .rdata:00403014 ae                               0xae 
                          .rdata:00403015 42                               0x42 'B'
                          .rdata:00403016 00                               0x00 
                          .rdata:00403017 00                               0x00 
                          .rdata:00403018 c2                               0xc2 
                          .rdata:00403019 42                               0x42 'B'
                          .rdata:0040301a 00                               0x00 
                          .rdata:0040301b 00                               0x00 
                          .rdata:0040301c d6                               0xd6 
                          .rdata:0040301d 42                               0x42 'B'
                          .rdata:0040301e 00                               0x00 
                          .rdata:0040301f 00                               0x00 
                          .rdata:00403020 94                               0x94 
                          .rdata:00403021 3d                               0x3d '='
                          .rdata:00403022 00                               0x00 
                          .rdata:00403023 00                               0x00 
                          .rdata:00403024 08                               0x08 
                          .rdata:00403025 43                               0x43 'C'
                          .rdata:00403026 00                               0x00 
                          .rdata:00403027 00                               0x00 
                          .rdata:00403028 1e                               0x1e 
                          .rdata:00403029 43                               0x43 'C'
                          .rdata:0040302a 00                               0x00 
                          .rdata:0040302b 00                               0x00 
                          .rdata:0040302c 38                               0x38 '8'
                          .rdata:0040302d 43                               0x43 'C'
                          .rdata:0040302e 00                               0x00 
                          .rdata:0040302f 00                               0x00 
                          .rdata:00403030 4e                               0x4e 'N'
                          .rdata:00403031 43                               0x43 'C'
                          .rdata:00403032 00                               0x00 
                          .rdata:00403033 00                               0x00 
                          .rdata:00403034 62                               0x62 'b'
                          .rdata:00403035 43                               0x43 'C'
                          .rdata:00403036 00                               0x00 
                          .rdata:00403037 00                               0x00 
                          .rdata:00403038 74                               0x74 't'
                          .rdata:00403039 43                               0x43 'C'
                          .rdata:0040303a 00                               0x00 
                          .rdata:0040303b 00                               0x00 
                          .rdata:0040303c 8c                               0x8c 
                          .rdata:0040303d 3d                               0x3d '='
                          .rdata:0040303e 00                               0x00 
                          .rdata:0040303f 00                               0x00 
                          .rdata:00403040 f2                               0xf2 
                          .rdata:00403041 42                               0x42 'B'
                          .rdata:00403042 00                               0x00 
                          .rdata:00403043 00                               0x00 
                          .rdata:00403044 00                               0x00 
                          .rdata:00403045 00                               0x00 
                          .rdata:00403046 00                               0x00 
                          .rdata:00403047 00                               0x00 
                          .rdata:00403048 b6                               0xb6 
                          .rdata:00403049 3e                               0x3e '>'
                          .rdata:0040304a 00                               0x00 
                          .rdata:0040304b 00                               0x00 
                          .rdata:0040304c c8                               0xc8 
                          .rdata:0040304d 3e                               0x3e '>'
                          .rdata:0040304e 00                               0x00 
                          .rdata:0040304f 00                               0x00 
                          .rdata:00403050 d6                               0xd6 
                          .rdata:00403051 3e                               0x3e '>'
                          .rdata:00403052 00                               0x00 
                          .rdata:00403053 00                               0x00 
                          .rdata:00403054 e6                               0xe6 
                          .rdata:00403055 3e                               0x3e '>'
                          .rdata:00403056 00                               0x00 
                          .rdata:00403057 00                               0x00 
                          .rdata:00403058 f8                               0xf8 
                          .rdata:00403059 3e                               0x3e '>'
                          .rdata:0040305a 00                               0x00 
                          .rdata:0040305b 00                               0x00 
                          .rdata:0040305c 0c                               0x0c ''
                          .rdata:0040305d 3f                               0x3f '?'
                          .rdata:0040305e 00                               0x00 
                          .rdata:0040305f 00                               0x00 
                          .rdata:00403060 1a                               0x1a 
                          .rdata:00403061 3f                               0x3f '?'
                          .rdata:00403062 00                               0x00 
                          .rdata:00403063 00                               0x00 
                          .rdata:00403064 28                               0x28 '('
                          .rdata:00403065 3f                               0x3f '?'
                          .rdata:00403066 00                               0x00 
                          .rdata:00403067 00                               0x00 
                          .rdata:00403068 36                               0x36 '6'
                          .rdata:00403069 3f                               0x3f '?'
                          .rdata:0040306a 00                               0x00 
                          .rdata:0040306b 00                               0x00 
                          .rdata:0040306c a4                               0xa4 
                          .rdata:0040306d 3e                               0x3e '>'
                          .rdata:0040306e 00                               0x00 
                          .rdata:0040306f 00                               0x00 
                          .rdata:00403070 92                               0x92 
                          .rdata:00403071 3e                               0x3e '>'
                          .rdata:00403072 00                               0x00 
                          .rdata:00403073 00                               0x00 
                          .rdata:00403074 f2                               0xf2 
                          .rdata:00403075 3d                               0x3d '='
                          .rdata:00403076 00                               0x00 
                          .rdata:00403077 00                               0x00 
                          .rdata:00403078 04                               0x04 
                          .rdata:00403079 3e                               0x3e '>'
                          .rdata:0040307a 00                               0x00 
                          .rdata:0040307b 00                               0x00 
                          .rdata:0040307c 14                               0x14 
                          .rdata:0040307d 3e                               0x3e '>'
                          .rdata:0040307e 00                               0x00 
                          .rdata:0040307f 00                               0x00 
                          .rdata:00403080 26                               0x26 '&'
                          .rdata:00403081 3e                               0x3e '>'
                          .rdata:00403082 00                               0x00 
                          .rdata:00403083 00                               0x00 
                          .rdata:00403084 e4                               0xe4 
                          .rdata:00403085 3d                               0x3d '='
                          .rdata:00403086 00                               0x00 
                          .rdata:00403087 00                               0x00 
                          .rdata:00403088 36                               0x36 '6'
                          .rdata:00403089 3e                               0x3e '>'
                          .rdata:0040308a 00                               0x00 
                          .rdata:0040308b 00                               0x00 
                          .rdata:0040308c 42                               0x42 'B'
                          .rdata:0040308d 3e                               0x3e '>'
                          .rdata:0040308e 00                               0x00 
                          .rdata:0040308f 00                               0x00 
                          .rdata:00403090 50                               0x50 'P'
                          .rdata:00403091 3e                               0x3e '>'
                          .rdata:00403092 00                               0x00 
                          .rdata:00403093 00                               0x00 
                          .rdata:00403094 60                               0x60 '`'
                          .rdata:00403095 3e                               0x3e '>'
                          .rdata:00403096 00                               0x00 
                          .rdata:00403097 00                               0x00 
                          .rdata:00403098 86                               0x86 
                          .rdata:00403099 3e                               0x3e '>'
                          .rdata:0040309a 00                               0x00 
                          .rdata:0040309b 00                               0x00 
                          .rdata:0040309c 72                               0x72 'r'
                          .rdata:0040309d 3e                               0x3e '>'
                          .rdata:0040309e 00                               0x00 
                          .rdata:0040309f 00                               0x00 
                          .rdata:004030a0 d8                               0xd8 
                          .rdata:004030a1 3d                               0x3d '='
                          .rdata:004030a2 00                               0x00 
                          .rdata:004030a3 00                               0x00 
                          .rdata:004030a4 00                               0x00 
                          .rdata:004030a5 00                               0x00 
                          .rdata:004030a6 00                               0x00 
                          .rdata:004030a7 00                               0x00 
                          .rdata:004030a8 b6                               0xb6 
                          .rdata:004030a9 3f                               0x3f '?'
                          .rdata:004030aa 00                               0x00 
                          .rdata:004030ab 00                               0x00 
                          .rdata:004030ac 72                               0x72 'r'
                          .rdata:004030ad 3f                               0x3f '?'
                          .rdata:004030ae 00                               0x00 
                          .rdata:004030af 00                               0x00 
                          .rdata:004030b0 94                               0x94 
                          .rdata:004030b1 3f                               0x3f '?'
                          .rdata:004030b2 00                               0x00 
                          .rdata:004030b3 00                               0x00 
                          .rdata:004030b4 c0                               0xc0 
                          .rdata:004030b5 3f                               0x3f '?'
                          .rdata:004030b6 00                               0x00 
                          .rdata:004030b7 00                               0x00 
                          .rdata:004030b8 00                               0x00 
                          .rdata:004030b9 00                               0x00 
                          .rdata:004030ba 00                               0x00 
                          .rdata:004030bb 00                               0x00 
                          .rdata:004030bc f6                               0xf6 
                          .rdata:004030bd 3f                               0x3f '?'
                          .rdata:004030be 00                               0x00 
                          .rdata:004030bf 00                               0x00 
                          .rdata:004030c0 fe                               0xfe 
                          .rdata:004030c1 3f                               0x3f '?'
                          .rdata:004030c2 00                               0x00 
                          .rdata:004030c3 00                               0x00 
                          .rdata:004030c4 ec                               0xec 
                          .rdata:004030c5 3f                               0x3f '?'
                          .rdata:004030c6 00                               0x00 
                          .rdata:004030c7 00                               0x00 
                          .rdata:004030c8 00                               0x00 
                          .rdata:004030c9 00                               0x00 
                          .rdata:004030ca 00                               0x00 
                          .rdata:004030cb 00                               0x00 
                          .rdata:004030cc 2c                               0x2c ','
                          .rdata:004030cd 41                               0x41 'A'
                          .rdata:004030ce 00                               0x00 
                          .rdata:004030cf 00                               0x00 
                          .rdata:004030d0 00                               0x00 
                          .rdata:004030d1 00                               0x00 
                          .rdata:004030d2 00                               0x00 
                          .rdata:004030d3 00                               0x00 
                          .rdata:004030d4 16                               0x16 
                          .rdata:004030d5 41                               0x41 'A'
                          .rdata:004030d6 00                               0x00 
                          .rdata:004030d7 00                               0x00 
                          .rdata:004030d8 00                               0x00 
                          .rdata:004030d9 00                               0x00 
                          .rdata:004030da 00                               0x00 
                          .rdata:004030db 00                               0x00 
                          .rdata:004030dc 28                               0x28 '('
                          .rdata:004030dd 40                               0x40 '@'
                          .rdata:004030de 00                               0x00 
                          .rdata:004030df 00                               0x00 
                          .rdata:004030e0 88                               0x88 
                          .rdata:004030e1 43                               0x43 'C'
                          .rdata:004030e2 00                               0x00 
                          .rdata:004030e3 00                               0x00 
                          .rdata:004030e4 00                               0x00 
                          .rdata:004030e5 00                               0x00 
                          .rdata:004030e6 00                               0x00 
                          .rdata:004030e7 00                               0x00 
                          .rdata:004030e8 84                               0x84 
                          .rdata:004030e9 41                               0x41 'A'
                          .rdata:004030ea 00                               0x00 
                          .rdata:004030eb 00                               0x00 
                          .rdata:004030ec 92                               0x92 
                          .rdata:004030ed 41                               0x41 'A'
                          .rdata:004030ee 00                               0x00 
                          .rdata:004030ef 00                               0x00 
                          .rdata:004030f0 a2                               0xa2 
                          .rdata:004030f1 41                               0x41 'A'
                          .rdata:004030f2 00                               0x00 
                          .rdata:004030f3 00                               0x00 
                          .rdata:004030f4 4c                               0x4c 'L'
                          .rdata:004030f5 41                               0x41 'A'
                          .rdata:004030f6 00                               0x00 
                          .rdata:004030f7 00                               0x00 
                          .rdata:004030f8 06                               0x06 
                          .rdata:004030f9 40                               0x40 '@'
                          .rdata:004030fa 00                               0x00 
                          .rdata:004030fb 00                               0x00 
                          .rdata:004030fc 18                               0x18 
                          .rdata:004030fd 40                               0x40 '@'
                          .rdata:004030fe 00                               0x00 
                          .rdata:004030ff 00                               0x00 
                          .rdata:00403100 e8                               0xe8 
                          .rdata:00403101 40                               0x40 '@'
                          .rdata:00403102 00                               0x00 
                          .rdata:00403103 00                               0x00 
                          .rdata:00403104 de                               0xde 
                          .rdata:00403105 40                               0x40 '@'
                          .rdata:00403106 00                               0x00 
                          .rdata:00403107 00                               0x00 
                          .rdata:00403108 d4                               0xd4 
                          .rdata:00403109 40                               0x40 '@'
                          .rdata:0040310a 00                               0x00 
                          .rdata:0040310b 00                               0x00 
                          .rdata:0040310c 3c                               0x3c '<'
                          .rdata:0040310d 40                               0x40 '@'
                          .rdata:0040310e 00                               0x00 
                          .rdata:0040310f 00                               0x00 
                          .rdata:00403110 be                               0xbe 
                          .rdata:00403111 40                               0x40 '@'
                          .rdata:00403112 00                               0x00 
                          .rdata:00403113 00                               0x00 
                          .rdata:00403114 b6                               0xb6 
                          .rdata:00403115 40                               0x40 '@'
                          .rdata:00403116 00                               0x00 
                          .rdata:00403117 00                               0x00 
                          .rdata:00403118 a8                               0xa8 
                          .rdata:00403119 40                               0x40 '@'
                          .rdata:0040311a 00                               0x00 
                          .rdata:0040311b 00                               0x00 
                          .rdata:0040311c 9c                               0x9c 
                          .rdata:0040311d 40                               0x40 '@'
                          .rdata:0040311e 00                               0x00 
                          .rdata:0040311f 00                               0x00 
                          .rdata:00403120 78                               0x78 'x'
                          .rdata:00403121 40                               0x40 '@'
                          .rdata:00403122 00                               0x00 
                          .rdata:00403123 00                               0x00 
                          .rdata:00403124 56                               0x56 'V'
                          .rdata:00403125 40                               0x40 '@'
                          .rdata:00403126 00                               0x00 
                          .rdata:00403127 00                               0x00 
                          .rdata:00403128 68                               0x68 'h'
                          .rdata:00403129 41                               0x41 'A'
                          .rdata:0040312a 00                               0x00 
                          .rdata:0040312b 00                               0x00 
                          .rdata:0040312c 00                               0x00 
                          .rdata:0040312d 00                               0x00 
                          .rdata:0040312e 00                               0x00 
                          .rdata:0040312f 00                               0x00 
                          .rdata:00403130 3c                               0x3c '<'
                          .rdata:00403131 41                               0x41 'A'
                          .rdata:00403132 00                               0x00 
                          .rdata:00403133 00                               0x00 
                          .rdata:00403134 c6                               0xc6 
                          .rdata:00403135 40                               0x40 '@'
                          .rdata:00403136 00                               0x00 
                          .rdata:00403137 00                               0x00 
                          .rdata:00403138 00                               0x00 
                          .rdata:00403139 00                               0x00 
                          .rdata:0040313a 00                               0x00 
                          .rdata:0040313b 00                               0x00 
                          .rdata:0040313c 2b                               0x2b '+'
                          .rdata:0040313d 2b                               0x2b '+'
                          .rdata:0040313e 40                               0x40 '@'
                          .rdata:0040313f 00                               0x00 
                          .rdata:00403140 00                               0x00 
                          .rdata:00403141 00                               0x00 
                          .rdata:00403142 00                               0x00 
                          .rdata:00403143 00                               0x00 
                          .rdata:00403144 84                               0x84 
                          .rdata:00403145 20                               0x20 ' '
                          .rdata:00403146 40                               0x40 '@'
                          .rdata:00403147 00                               0x00 
                          .rdata:00403148 00                               0x00 
                          .rdata:00403149 00                               0x00 
                          .rdata:0040314a 00                               0x00 
                          .rdata:0040314b 00                               0x00 
                          .rdata:0040314c 00                               0x00 
                          .rdata:0040314d 00                               0x00 
                          .rdata:0040314e 00                               0x00 
                          .rdata:0040314f 00                               0x00 
                          .rdata:00403150 e1                               0xe1 
                          .rdata:00403151 1f                               0x1f 
                          .rdata:00403152 40                               0x40 '@'
                          .rdata:00403153 00                               0x00 
                          .rdata:00403154 7c                               0x7c '|'
                          .rdata:00403155 20                               0x20 ' '
                          .rdata:00403156 40                               0x40 '@'
                          .rdata:00403157 00                               0x00 
                          .rdata:00403158 00                               0x00 
                          .rdata:00403159 00                               0x00 
                          .rdata:0040315a 00                               0x00 
                          .rdata:0040315b 00                               0x00 
                          .rdata:0040315c 00                               0x00 
                          .rdata:0040315d 00                               0x00 
                          .rdata:0040315e 00                               0x00 
                          .rdata:0040315f 00                               0x00 
                          .rdata:00403160 00                               0x00 
                          .rdata:00403161 00                               0x00 
                          .rdata:00403162 00                               0x00 
                          .rdata:00403163 00                               0x00 
                          .rdata:00403164 00                               0x00 
                          .rdata:00403165 00                               0x00 
                          .rdata:00403166 00                               0x00 
                          .rdata:00403167 00                               0x00 
                          .rdata:00403168 00                               0x00 
                          .rdata:00403169 00                               0x00 
                          .rdata:0040316a 00                               0x00 
                          .rdata:0040316b 00                               0x00 
                          .rdata:0040316c 00                               0x00 
                          .rdata:0040316d 00                               0x00 
                          .rdata:0040316e 00                               0x00 
                          .rdata:0040316f 00                               0x00 
                          .rdata:00403170 38                               0x38 '8'
                          .rdata:00403171 50                               0x50 'P'
                          .rdata:00403172 40                               0x40 '@'
                          .rdata:00403173 00                               0x00 
                          .rdata:00403174 88                               0x88 
                          .rdata:00403175 50                               0x50 'P'
                          .rdata:00403176 40                               0x40 '@'
                          .rdata:00403177 00                               0x00 
                          .rdata:00403178 00                               0x00 
                          .rdata:00403179 00                               0x00 
                          .rdata:0040317a 00                               0x00 
                          .rdata:0040317b 00                               0x00 
                          .rdata:0040317c 43                               0x43 'C'
                          .rdata:0040317d 6c                               0x6c 'l'
                          .rdata:0040317e 69                               0x69 'i'
                          .rdata:0040317f 63                               0x63 'c'
                          .rdata:00403180 6b                               0x6b 'k'
                          .rdata:00403181 65                               0x65 'e'
                          .rdata:00403182 72                               0x72 'r'
                          .rdata:00403183 00                               0x00 
                          .rdata:00403184 73                               0x73 's'
                          .rdata:00403185 74                               0x74 't'
                          .rdata:00403186 61                               0x61 'a'
                          .rdata:00403187 74                               0x74 't'
                          .rdata:00403188 75                               0x75 'u'
                          .rdata:00403189 73                               0x73 's'
                          .rdata:0040318a 3a                               0x3a ':'
                          .rdata:0040318b 20                               0x20 ' '
                          .rdata:0040318c 69                               0x69 'i'
                          .rdata:0040318d 64                               0x64 'd'
                          .rdata:0040318e 6c                               0x6c 'l'
                          .rdata:0040318f 65                               0x65 'e'
                          .rdata:00403190 00                               0x00 
                          .rdata:00403191 00                               0x00 
                          .rdata:00403192 00                               0x00 
                          .rdata:00403193 00                               0x00 
                          .rdata:00403194 53                               0x53 'S'
                          .rdata:00403195 74                               0x74 't'
                          .rdata:00403196 61                               0x61 'a'
                          .rdata:00403197 74                               0x74 't'
                          .rdata:00403198 69                               0x69 'i'
                          .rdata:00403199 63                               0x63 'c'
                          .rdata:0040319a 00                               0x00 
                          .rdata:0040319b 00                               0x00 
                          .rdata:0040319c 23                               0x23 '#'
                          .rdata:0040319d 20                               0x20 ' '
                          .rdata:0040319e 63                               0x63 'c'
                          .rdata:0040319f 6c                               0x6c 'l'
                          .rdata:004031a0 69                               0x69 'i'
                          .rdata:004031a1 63                               0x63 'c'
                          .rdata:004031a2 6b                               0x6b 'k'
                          .rdata:004031a3 73                               0x73 's'
                          .rdata:004031a4 00                               0x00 
                          .rdata:004031a5 00                               0x00 
                          .rdata:004031a6 00                               0x00 
                          .rdata:004031a7 00                               0x00 
                          .rdata:004031a8 63                               0x63 'c'
                          .rdata:004031a9 6c                               0x6c 'l'
                          .rdata:004031aa 69                               0x69 'i'
                          .rdata:004031ab 63                               0x63 'c'
                          .rdata:004031ac 6b                               0x6b 'k'
                          .rdata:004031ad 73                               0x73 's'
                          .rdata:004031ae 2f                               0x2f '/'
                          .rdata:004031af 73                               0x73 's'
                          .rdata:004031b0 00                               0x00 
                          .rdata:004031b1 00                               0x00 
                          .rdata:004031b2 00                               0x00 
                          .rdata:004031b3 00                               0x00 
                          .rdata:004031b4 74                               0x74 't'
                          .rdata:004031b5 72                               0x72 'r'
                          .rdata:004031b6 69                               0x69 'i'
                          .rdata:004031b7 67                               0x67 'g'
                          .rdata:004031b8 67                               0x67 'g'
                          .rdata:004031b9 65                               0x65 'e'
                          .rdata:004031ba 72                               0x72 'r'
                          .rdata:004031bb 00                               0x00 
                          .rdata:004031bc 73                               0x73 's'
                          .rdata:004031bd 74                               0x74 't'
                          .rdata:004031be 6f                               0x6f 'o'
                          .rdata:004031bf 70                               0x70 'p'
                          .rdata:004031c0 20                               0x20 ' '
                          .rdata:004031c1 61                               0x61 'a'
                          .rdata:004031c2 74                               0x74 't'
                          .rdata:004031c3 00                               0x00 
                          .rdata:004031c4 30                               0x30 '0'
                          .rdata:004031c5 00                               0x00 
                          .rdata:004031c6 00                               0x00 
                          .rdata:004031c7 00                               0x00 
                          .rdata:004031c8 45                               0x45 'E'
                          .rdata:004031c9 64                               0x64 'd'
                          .rdata:004031ca 69                               0x69 'i'
                          .rdata:004031cb 74                               0x74 't'
                          .rdata:004031cc 00                               0x00 
                          .rdata:004031cd 00                               0x00 
                          .rdata:004031ce 00                               0x00 
                          .rdata:004031cf 00                               0x00 
                          .rdata:004031d0 31                               0x31 '1'
                          .rdata:004031d1 30                               0x30 '0'
                          .rdata:004031d2 00                               0x00 
                          .rdata:004031d3 00                               0x00 
                          .rdata:004031d4 42                               0x42 'B'
                          .rdata:004031d5 75                               0x75 'u'
                          .rdata:004031d6 74                               0x74 't'
                          .rdata:004031d7 74                               0x74 't'
                          .rdata:004031d8 6f                               0x6f 'o'
                          .rdata:004031d9 6e                               0x6e 'n'
                          .rdata:004031da 00                               0x00 
                          .rdata:004031db 00                               0x00 
                          .rdata:004031dc 53                               0x53 'S'
                          .rdata:004031dd 54                               0x54 'T'
                          .rdata:004031de 4f                               0x4f 'O'
                          .rdata:004031df 50                               0x50 'P'
                          .rdata:004031e0 21                               0x21 '!'
                          .rdata:004031e1 00                               0x00 
                          .rdata:004031e2 00                               0x00 
                          .rdata:004031e3 00                               0x00 
                          .rdata:004031e4 48                               0x48 'H'
                          .rdata:004031e5 65                               0x65 'e'
                          .rdata:004031e6 6c                               0x6c 'l'
                          .rdata:004031e7 70                               0x70 'p'
                          .rdata:004031e8 00                               0x00 
                          .rdata:004031e9 00                               0x00 
                          .rdata:004031ea 00                               0x00 
                          .rdata:004031eb 00                               0x00 
                          .rdata:004031ec 70                               0x70 'p'
                          .rdata:004031ed 72                               0x72 'r'
                          .rdata:004031ee 65                               0x65 'e'
                          .rdata:004031ef 73                               0x73 's'
                          .rdata:004031f0 73                               0x73 's'
                          .rdata:004031f1 20                               0x20 ' '
                          .rdata:004031f2 2f                               0x2f '/'
                          .rdata:004031f3 20                               0x20 ' '
                          .rdata:004031f4 74                               0x74 't'
                          .rdata:004031f5 6f                               0x6f 'o'
                          .rdata:004031f6 67                               0x67 'g'
                          .rdata:004031f7 67                               0x67 'g'
                          .rdata:004031f8 6c                               0x6c 'l'
                          .rdata:004031f9 65                               0x65 'e'
                          .rdata:004031fa 00                               0x00 
                          .rdata:004031fb 00                               0x00 
                          .rdata:004031fc 70                               0x70 'p'
                          .rdata:004031fd 72                               0x72 'r'
                          .rdata:004031fe 65                               0x65 'e'
                          .rdata:004031ff 73                               0x73 's'
                          .rdata:00403200 73                               0x73 's'
                          .rdata:00403201 00                               0x00 
                          .rdata:00403202 00                               0x00 
                          .rdata:00403203 00                               0x00 
                          .rdata:00403204 74                               0x74 't'
                          .rdata:00403205 6f                               0x6f 'o'
                          .rdata:00403206 67                               0x67 'g'
                          .rdata:00403207 67                               0x67 'g'
                          .rdata:00403208 6c                               0x6c 'l'
                          .rdata:00403209 65                               0x65 'e'
                          .rdata:0040320a 00                               0x00 
                          .rdata:0040320b 00                               0x00 
                          .rdata:0040320c 6d                               0x6d 'm'
                          .rdata:0040320d 6f                               0x6f 'o'
                          .rdata:0040320e 75                               0x75 'u'
                          .rdata:0040320f 73                               0x73 's'
                          .rdata:00403210 65                               0x65 'e'
                          .rdata:00403211 2f                               0x2f '/'
                          .rdata:00403212 6b                               0x6b 'k'
                          .rdata:00403213 65                               0x65 'e'
                          .rdata:00403214 79                               0x79 'y'
                          .rdata:00403215 20                               0x20 ' '
                          .rdata:00403216 74                               0x74 't'
                          .rdata:00403217 6f                               0x6f 'o'
                          .rdata:00403218 20                               0x20 ' '
                          .rdata:00403219 63                               0x63 'c'
                          .rdata:0040321a 6c                               0x6c 'l'
                          .rdata:0040321b 69                               0x69 'i'
                          .rdata:0040321c 63                               0x63 'c'
                          .rdata:0040321d 6b                               0x6b 'k'
                          .rdata:0040321e 00                               0x00 
                          .rdata:0040321f 00                               0x00 
                          .rdata:00403220 6c                               0x6c 'l'
                          .rdata:00403221 65                               0x65 'e'
                          .rdata:00403222 66                               0x66 'f'
                          .rdata:00403223 74                               0x74 't'
                          .rdata:00403224 00                               0x00 
                          .rdata:00403225 00                               0x00 
                          .rdata:00403226 00                               0x00 
                          .rdata:00403227 00                               0x00 
                          .rdata:00403228 6d                               0x6d 'm'
                          .rdata:00403229 69                               0x69 'i'
                          .rdata:0040322a 64                               0x64 'd'
                          .rdata:0040322b 64                               0x64 'd'
                          .rdata:0040322c 6c                               0x6c 'l'
                          .rdata:0040322d 65                               0x65 'e'
                          .rdata:0040322e 00                               0x00 
                          .rdata:0040322f 00                               0x00 
                          .rdata:00403230 72                               0x72 'r'
                          .rdata:00403231 69                               0x69 'i'
                          .rdata:00403232 67                               0x67 'g'
                          .rdata:00403233 68                               0x68 'h'
                          .rdata:00403234 74                               0x74 't'
                          .rdata:00403235 00                               0x00 
                          .rdata:00403236 00                               0x00 
                          .rdata:00403237 00                               0x00 
                          .rdata:00403238 6b                               0x6b 'k'
                          .rdata:00403239 65                               0x65 'e'
                          .rdata:0040323a 79                               0x79 'y'
                          .rdata:0040323b 3a                               0x3a ':'
                          .rdata:0040323c 00                               0x00 
                          .rdata:0040323d 00                               0x00 
                          .rdata:0040323e 00                               0x00 
                          .rdata:0040323f 00                               0x00 
                          .rdata:00403240 63                               0x63 'c'
                          .rdata:00403241 6c                               0x6c 'l'
                          .rdata:00403242 69                               0x69 'i'
                          .rdata:00403243 63                               0x63 'c'
                          .rdata:00403244 6b                               0x6b 'k'
                          .rdata:00403245 20                               0x20 ' '
                          .rdata:00403246 74                               0x74 't'
                          .rdata:00403247 6f                               0x6f 'o'
                          .rdata:00403248 20                               0x20 ' '
                          .rdata:00403249 73                               0x73 's'
                          .rdata:0040324a 65                               0x65 'e'
                          .rdata:0040324b 74                               0x74 't'
                          .rdata:0040324c 00                               0x00 
                          .rdata:0040324d 00                               0x00 
                          .rdata:0040324e 00                               0x00 
                          .rdata:0040324f 00                               0x00 
                          .rdata:00403250 73                               0x73 's'
                          .rdata:00403251 74                               0x74 't'
                          .rdata:00403252 61                               0x61 'a'
                          .rdata:00403253 74                               0x74 't'
                          .rdata:00403254 75                               0x75 'u'
                          .rdata:00403255 73                               0x73 's'
                          .rdata:00403256 3a                               0x3a ':'
                          .rdata:00403257 20                               0x20 ' '
                          .rdata:00403258 48                               0x48 'H'
                          .rdata:00403259 69                               0x69 'i'
                          .rdata:0040325a 74                               0x74 't'
                          .rdata:0040325b 20                               0x20 ' '
                          .rdata:0040325c 74                               0x74 't'
                          .rdata:0040325d 68                               0x68 'h'
                          .rdata:0040325e 65                               0x65 'e'
                          .rdata:0040325f 20                               0x20 ' '
                          .rdata:00403260 6b                               0x6b 'k'
                          .rdata:00403261 65                               0x65 'e'
                          .rdata:00403262 79                               0x79 'y'
                          .rdata:00403263 20                               0x20 ' '
                          .rdata:00403264 74                               0x74 't'
                          .rdata:00403265 68                               0x68 'h'
                          .rdata:00403266 61                               0x61 'a'
                          .rdata:00403267 74                               0x74 't'
                          .rdata:00403268 20                               0x20 ' '
                          .rdata:00403269 77                               0x77 'w'
                          .rdata:0040326a 69                               0x69 'i'
                          .rdata:0040326b 6c                               0x6c 'l'
                          .rdata:0040326c 6c                               0x6c 'l'
                          .rdata:0040326d 20                               0x20 ' '
                          .rdata:0040326e 62                               0x62 'b'
                          .rdata:0040326f 65                               0x65 'e'
                          .rdata:00403270 20                               0x20 ' '
                          .rdata:00403271 72                               0x72 'r'
                          .rdata:00403272 65                               0x65 'e'
                          .rdata:00403273 70                               0x70 'p'
                          .rdata:00403274 65                               0x65 'e'
                          .rdata:00403275 61                               0x61 'a'
                          .rdata:00403276 74                               0x74 't'
                          .rdata:00403277 65                               0x65 'e'
                          .rdata:00403278 64                               0x64 'd'
                          .rdata:00403279 2e                               0x2e '.'
                          .rdata:0040327a 00                               0x00 
                          .rdata:0040327b 00                               0x00 
                          .rdata:0040327c 73                               0x73 's'
                          .rdata:0040327d 74                               0x74 't'
                          .rdata:0040327e 61                               0x61 'a'
                          .rdata:0040327f 74                               0x74 't'
                          .rdata:00403280 75                               0x75 'u'
                          .rdata:00403281 73                               0x73 's'
                          .rdata:00403282 3a                               0x3a ':'
                          .rdata:00403283 20                               0x20 ' '
                          .rdata:00403284 70                               0x70 'p'
                          .rdata:00403285 6c                               0x6c 'l'
                          .rdata:00403286 65                               0x65 'e'
                          .rdata:00403287 61                               0x61 'a'
                          .rdata:00403288 73                               0x73 's'
                          .rdata:00403289 65                               0x65 'e'
                          .rdata:0040328a 20                               0x20 ' '
                          .rdata:0040328b 68                               0x68 'h'
                          .rdata:0040328c 69                               0x69 'i'
                          .rdata:0040328d 74                               0x74 't'
                          .rdata:0040328e 20                               0x20 ' '
                          .rdata:0040328f 74                               0x74 't'
                          .rdata:00403290 72                               0x72 'r'
                          .rdata:00403291 69                               0x69 'i'
                          .rdata:00403292 67                               0x67 'g'
                          .rdata:00403293 67                               0x67 'g'
                          .rdata:00403294 65                               0x65 'e'
                          .rdata:00403295 72                               0x72 'r'
                          .rdata:00403296 20                               0x20 ' '
                          .rdata:00403297 6b                               0x6b 'k'
                          .rdata:00403298 65                               0x65 'e'
                          .rdata:00403299 79                               0x79 'y'
                          .rdata:0040329a 00                               0x00 
                          .rdata:0040329b 00                               0x00 
                          .rdata:0040329c 73                               0x73 's'
                          .rdata:0040329d 74                               0x74 't'
                          .rdata:0040329e 61                               0x61 'a'
                          .rdata:0040329f 74                               0x74 't'
                          .rdata:004032a0 75                               0x75 'u'
                          .rdata:004032a1 73                               0x73 's'
                          .rdata:004032a2 3a                               0x3a ':'
                          .rdata:004032a3 20                               0x20 ' '
                          .rdata:004032a4 63                               0x63 'c'
                          .rdata:004032a5 6c                               0x6c 'l'
                          .rdata:004032a6 69                               0x69 'i'
                          .rdata:004032a7 63                               0x63 'c'
                          .rdata:004032a8 6b                               0x6b 'k'
                          .rdata:004032a9 69                               0x69 'i'
                          .rdata:004032aa 6e                               0x6e 'n'
                          .rdata:004032ab 67                               0x67 'g'
                          .rdata:004032ac 00                               0x00 
                          .rdata:004032ad 00                               0x00 
                          .rdata:004032ae 00                               0x00 
                          .rdata:004032af 00                               0x00 
                          .rdata:004032b0 2d                               0x2d '-'
                          .rdata:004032b1 54                               0x54 'T'
                          .rdata:004032b2 6f                               0x6f 'o'
                          .rdata:004032b3 70                               0x70 'p'
                          .rdata:004032b4 6d                               0x6d 'm'
                          .rdata:004032b5 6f                               0x6f 'o'
                          .rdata:004032b6 73                               0x73 's'
                          .rdata:004032b7 74                               0x74 't'
                          .rdata:004032b8 20                               0x20 ' '
                          .rdata:004032b9 74                               0x74 't'
                          .rdata:004032ba 65                               0x65 'e'
                          .rdata:004032bb 78                               0x78 'x'
                          .rdata:004032bc 74                               0x74 't'
                          .rdata:004032bd 20                               0x20 ' '
                          .rdata:004032be 66                               0x66 'f'
                          .rdata:004032bf 69                               0x69 'i'
                          .rdata:004032c0 65                               0x65 'e'
                          .rdata:004032c1 6c                               0x6c 'l'
                          .rdata:004032c2 64                               0x64 'd'
                          .rdata:004032c3 20                               0x20 ' '
                          .rdata:004032c4 69                               0x69 'i'
                          .rdata:004032c5 6e                               0x6e 'n'
                          .rdata:004032c6 64                               0x64 'd'
                          .rdata:004032c7 69                               0x69 'i'
                          .rdata:004032c8 63                               0x63 'c'
                          .rdata:004032c9 61                               0x61 'a'
                          .rdata:004032ca 74                               0x74 't'
                          .rdata:004032cb 65                               0x65 'e'
                          .rdata:004032cc 73                               0x73 's'
                          .rdata:004032cd 20                               0x20 ' '
                          .rdata:004032ce 6e                               0x6e 'n'
                          .rdata:004032cf 75                               0x75 'u'
                          .rdata:004032d0 6d                               0x6d 'm'
                          .rdata:004032d1 62                               0x62 'b'
                          .rdata:004032d2 65                               0x65 'e'
                          .rdata:004032d3 72                               0x72 'r'
                          .rdata:004032d4 20                               0x20 ' '
                          .rdata:004032d5 6f                               0x6f 'o'
                          .rdata:004032d6 66                               0x66 'f'
                          .rdata:004032d7 20                               0x20 ' '
                          .rdata:004032d8 63                               0x63 'c'
                          .rdata:004032d9 6c                               0x6c 'l'
                          .rdata:004032da 69                               0x69 'i'
                          .rdata:004032db 63                               0x63 'c'
                          .rdata:004032dc 6b                               0x6b 'k'
                          .rdata:004032dd 73                               0x73 's'
                          .rdata:004032de 0a                               0x0a '
'
                          .rdata:004032df 2d                               0x2d '-'
                          .rdata:004032e0 4d                               0x4d 'M'
                          .rdata:004032e1 69                               0x69 'i'
                          .rdata:004032e2 64                               0x64 'd'
                          .rdata:004032e3 64                               0x64 'd'
                          .rdata:004032e4 6c                               0x6c 'l'
                          .rdata:004032e5 65                               0x65 'e'
                          .rdata:004032e6 20                               0x20 ' '
                          .rdata:004032e7 74                               0x74 't'
                          .rdata:004032e8 65                               0x65 'e'
                          .rdata:004032e9 78                               0x78 'x'
                          .rdata:004032ea 74                               0x74 't'
                          .rdata:004032eb 20                               0x20 ' '
                          .rdata:004032ec 66                               0x66 'f'
                          .rdata:004032ed 69                               0x69 'i'
                          .rdata:004032ee 65                               0x65 'e'
                          .rdata:004032ef 6c                               0x6c 'l'
                          .rdata:004032f0 64                               0x64 'd'
                          .rdata:004032f1 20                               0x20 ' '
                          .rdata:004032f2 69                               0x69 'i'
                          .rdata:004032f3 73                               0x73 's'
                          .rdata:004032f4 20                               0x20 ' '
                          .rdata:004032f5 74                               0x74 't'
                          .rdata:004032f6 68                               0x68 'h'
                          .rdata:004032f7 65                               0x65 'e'
                          .rdata:004032f8 20                               0x20 ' '
                          .rdata:004032f9 66                               0x66 'f'
                          .rdata:004032fa 72                               0x72 'r'
                          .rdata:004032fb 65                               0x65 'e'
                          .rdata:004032fc 71                               0x71 'q'
                          .rdata:004032fd 75                               0x75 'u'
                          .rdata:004032fe 65                               0x65 'e'
                          .rdata:004032ff 6e                               0x6e 'n'
                          .rdata:00403300 63                               0x63 'c'
                          .rdata:00403301 79                               0x79 'y'
                          .rdata:00403302 20                               0x20 ' '
                          .rdata:00403303 6f                               0x6f 'o'
                          .rdata:00403304 66                               0x66 'f'
                          .rdata:00403305 20                               0x20 ' '
                          .rdata:00403306 74                               0x74 't'
                          .rdata:00403307 68                               0x68 'h'
                          .rdata:00403308 65                               0x65 'e'
                          .rdata:00403309 20                               0x20 ' '
                          .rdata:0040330a 63                               0x63 'c'
                          .rdata:0040330b 6c                               0x6c 'l'
                          .rdata:0040330c 69                               0x69 'i'
                          .rdata:0040330d 63                               0x63 'c'
                          .rdata:0040330e 6b                               0x6b 'k'
                          .rdata:0040330f 73                               0x73 's'
                          .rdata:00403310 20                               0x20 ' '
                          .rdata:00403311 69                               0x69 'i'
                          .rdata:00403312 6e                               0x6e 'n'
                          .rdata:00403313 20                               0x20 ' '
                          .rdata:00403314 63                               0x63 'c'
                          .rdata:00403315 6c                               0x6c 'l'
                          .rdata:00403316 69                               0x69 'i'
                          .rdata:00403317 63                               0x63 'c'
                          .rdata:00403318 6b                               0x6b 'k'
                          .rdata:00403319 73                               0x73 's'
                          .rdata:0040331a 20                               0x20 ' '
                          .rdata:0040331b 70                               0x70 'p'
                          .rdata:0040331c 65                               0x65 'e'
                          .rdata:0040331d 72                               0x72 'r'
                          .rdata:0040331e 20                               0x20 ' '
                          .rdata:0040331f 73                               0x73 's'
                          .rdata:00403320 65                               0x65 'e'
                          .rdata:00403321 63                               0x63 'c'
                          .rdata:00403322 6f                               0x6f 'o'
                          .rdata:00403323 6e                               0x6e 'n'
                          .rdata:00403324 64                               0x64 'd'
                          .rdata:00403325 2e                               0x2e '.'
                          .rdata:00403326 0a                               0x0a '
'
                          .rdata:00403327 20                               0x20 ' '
                          .rdata:00403328 46                               0x46 'F'
                          .rdata:00403329 72                               0x72 'r'
                          .rdata:0040332a 65                               0x65 'e'
                          .rdata:0040332b 71                               0x71 'q'
                          .rdata:0040332c 75                               0x75 'u'
                          .rdata:0040332d 65                               0x65 'e'
                          .rdata:0040332e 6e                               0x6e 'n'
                          .rdata:0040332f 63                               0x63 'c'
                          .rdata:00403330 79                               0x79 'y'
                          .rdata:00403331 20                               0x20 ' '
                          .rdata:00403332 63                               0x63 'c'
                          .rdata:00403333 61                               0x61 'a'
                          .rdata:00403334 6e                               0x6e 'n'
                          .rdata:00403335 20                               0x20 ' '
                          .rdata:00403336 62                               0x62 'b'
                          .rdata:00403337 65                               0x65 'e'
                          .rdata:00403338 20                               0x20 ' '
                          .rdata:00403339 61                               0x61 'a'
                          .rdata:0040333a 73                               0x73 's'
                          .rdata:0040333b 20                               0x20 ' '
                          .rdata:0040333c 68                               0x68 'h'
                          .rdata:0040333d 69                               0x69 'i'
                          .rdata:0040333e 67                               0x67 'g'
                          .rdata:0040333f 68                               0x68 'h'
                          .rdata:00403340 20                               0x20 ' '
                          .rdata:00403341 61                               0x61 'a'
                          .rdata:00403342 73                               0x73 's'
                          .rdata:00403343 20                               0x20 ' '
                          .rdata:00403344 39                               0x39 '9'
                          .rdata:00403345 39                               0x39 '9'
                          .rdata:00403346 39                               0x39 '9'
                          .rdata:00403347 39                               0x39 '9'
                          .rdata:00403348 20                               0x20 ' '
                          .rdata:00403349 63                               0x63 'c'
                          .rdata:0040334a 2f                               0x2f '/'
                          .rdata:0040334b 73                               0x73 's'
                          .rdata:0040334c 0a                               0x0a '
'
                          .rdata:0040334d 20                               0x20 ' '
                          .rdata:0040334e 59                               0x59 'Y'
                          .rdata:0040334f 6f                               0x6f 'o'
                          .rdata:00403350 75                               0x75 'u'
                          .rdata:00403351 20                               0x20 ' '
                          .rdata:00403352 6d                               0x6d 'm'
                          .rdata:00403353 61                               0x61 'a'
                          .rdata:00403354 79                               0x79 'y'
                          .rdata:00403355 20                               0x20 ' '
                          .rdata:00403356 65                               0x65 'e'
                          .rdata:00403357 6e                               0x6e 'n'
                          .rdata:00403358 74                               0x74 't'
                          .rdata:00403359 65                               0x65 'e'
                          .rdata:0040335a 72                               0x72 'r'
                          .rdata:0040335b 20                               0x20 ' '
                          .rdata:0040335c 66                               0x66 'f'
                          .rdata:0040335d 72                               0x72 'r'
                          .rdata:0040335e 61                               0x61 'a'
                          .rdata:0040335f 63                               0x63 'c'
                          .rdata:00403360 74                               0x74 't'
                          .rdata:00403361 69                               0x69 'i'
                          .rdata:00403362 6f                               0x6f 'o'
                          .rdata:00403363 6e                               0x6e 'n'
                          .rdata:00403364 61                               0x61 'a'
                          .rdata:00403365 6c                               0x6c 'l'
                          .rdata:00403366 20                               0x20 ' '
                          .rdata:00403367 66                               0x66 'f'
                          .rdata:00403368 72                               0x72 'r'
                          .rdata:00403369 65                               0x65 'e'
                          .rdata:0040336a 71                               0x71 'q'
                          .rdata:0040336b 75                               0x75 'u'
                          .rdata:0040336c 65                               0x65 'e'
                          .rdata:0040336d 6e                               0x6e 'n'
                          .rdata:0040336e 63                               0x63 'c'
                          .rdata:0040336f 69                               0x69 'i'
                          .rdata:00403370 65                               0x65 'e'
                          .rdata:00403371 73                               0x73 's'
                          .rdata:00403372 2e                               0x2e '.'
                          .rdata:00403373 20                               0x20 ' '
                          .rdata:00403374 46                               0x46 'F'
                          .rdata:00403375 6f                               0x6f 'o'
                          .rdata:00403376 72                               0x72 'r'
                          .rdata:00403377 20                               0x20 ' '
                          .rdata:00403378 65                               0x65 'e'
                          .rdata:00403379 78                               0x78 'x'
                          .rdata:0040337a 61                               0x61 'a'
                          .rdata:0040337b 6d                               0x6d 'm'
                          .rdata:0040337c 70                               0x70 'p'
                          .rdata:0040337d 6c                               0x6c 'l'
                          .rdata:0040337e 65                               0x65 'e'
                          .rdata:0040337f 2c                               0x2c ','
                          .rdata:00403380 20                               0x20 ' '
                          .rdata:00403381 30                               0x30 '0'
                          .rdata:00403382 2e                               0x2e '.'
                          .rdata:00403383 35                               0x35 '5'
                          .rdata:00403384 20                               0x20 ' '
                          .rdata:00403385 69                               0x69 'i'
                          .rdata:00403386 73                               0x73 's'
                          .rdata:00403387 20                               0x20 ' '
                          .rdata:00403388 6f                               0x6f 'o'
                          .rdata:00403389 6e                               0x6e 'n'
                          .rdata:0040338a 65                               0x65 'e'
                          .rdata:0040338b 20                               0x20 ' '
                          .rdata:0040338c 63                               0x63 'c'
                          .rdata:0040338d 6c                               0x6c 'l'
                          .rdata:0040338e 69                               0x69 'i'
                          .rdata:0040338f 63                               0x63 'c'
                          .rdata:00403390 6b                               0x6b 'k'
                          .rdata:00403391 20                               0x20 ' '
                          .rdata:00403392 65                               0x65 'e'
                          .rdata:00403393 76                               0x76 'v'
                          .rdata:00403394 65                               0x65 'e'
                          .rdata:00403395 72                               0x72 'r'
                          .rdata:00403396 79                               0x79 'y'
                          .rdata:00403397 20                               0x20 ' '
                          .rdata:00403398 74                               0x74 't'
                          .rdata:00403399 77                               0x77 'w'
                          .rdata:0040339a 6f                               0x6f 'o'
                          .rdata:0040339b 20                               0x20 ' '
                          .rdata:0040339c 73                               0x73 's'
                          .rdata:0040339d 65                               0x65 'e'
                          .rdata:0040339e 63                               0x63 'c'
                          .rdata:0040339f 6f                               0x6f 'o'
                          .rdata:004033a0 6e                               0x6e 'n'
                          .rdata:004033a1 64                               0x64 'd'
                          .rdata:004033a2 73                               0x73 's'
                          .rdata:004033a3 2e                               0x2e '.'
                          .rdata:004033a4 0a                               0x0a '
'
                          .rdata:004033a5 2d                               0x2d '-'
                          .rdata:004033a6 42                               0x42 'B'
                          .rdata:004033a7 65                               0x65 'e'
                          .rdata:004033a8 6c                               0x6c 'l'
                          .rdata:004033a9 6f                               0x6f 'o'
                          .rdata:004033aa 77                               0x77 'w'
                          .rdata:004033ab 20                               0x20 ' '
                          .rdata:004033ac 74                               0x74 't'
                          .rdata:004033ad 68                               0x68 'h'
                          .rdata:004033ae 61                               0x61 'a'
                          .rdata:004033af 74                               0x74 't'
                          .rdata:004033b0 2c                               0x2c ','
                          .rdata:004033b1 20                               0x20 ' '
                          .rdata:004033b2 74                               0x74 't'
                          .rdata:004033b3 68                               0x68 'h'
                          .rdata:004033b4 65                               0x65 'e'
                          .rdata:004033b5 20                               0x20 ' '
                          .rdata:004033b6 62                               0x62 'b'
                          .rdata:004033b7 75                               0x75 'u'
                          .rdata:004033b8 74                               0x74 't'
                          .rdata:004033b9 74                               0x74 't'
                          .rdata:004033ba 6f                               0x6f 'o'
                          .rdata:004033bb 6e                               0x6e 'n'
                          .rdata:004033bc 20                               0x20 ' '
                          .rdata:004033bd 69                               0x69 'i'
                          .rdata:004033be 73                               0x73 's'
                          .rdata:004033bf 20                               0x20 ' '
                          .rdata:004033c0 74                               0x74 't'
                          .rdata:004033c1 68                               0x68 'h'
                          .rdata:004033c2 65                               0x65 'e'
                          .rdata:004033c3 20                               0x20 ' '
                          .rdata:004033c4 74                               0x74 't'
                          .rdata:004033c5 72                               0x72 'r'
                          .rdata:004033c6 69                               0x69 'i'
                          .rdata:004033c7 67                               0x67 'g'
                          .rdata:004033c8 67                               0x67 'g'
                          .rdata:004033c9 65                               0x65 'e'
                          .rdata:004033ca 72                               0x72 'r'
                          .rdata:004033cb 20                               0x20 ' '
                          .rdata:004033cc 6b                               0x6b 'k'
                          .rdata:004033cd 65                               0x65 'e'
                          .rdata:004033ce 79                               0x79 'y'
                          .rdata:004033cf 2e                               0x2e '.'
                          .rdata:004033d0 20                               0x20 ' '
                          .rdata:004033d1 43                               0x43 'C'
                          .rdata:004033d2 6c                               0x6c 'l'
                          .rdata:004033d3 69                               0x69 'i'
                          .rdata:004033d4 63                               0x63 'c'
                          .rdata:004033d5 6b                               0x6b 'k'
                          .rdata:004033d6 20                               0x20 ' '
                          .rdata:004033d7 6f                               0x6f 'o'
                          .rdata:004033d8 6e                               0x6e 'n'
                          .rdata:004033d9 20                               0x20 ' '
                          .rdata:004033da 69                               0x69 'i'
                          .rdata:004033db 74                               0x74 't'
                          .rdata:004033dc 20                               0x20 ' '
                          .rdata:004033dd 61                               0x61 'a'
                          .rdata:004033de 6e                               0x6e 'n'
                          .rdata:004033df 64                               0x64 'd'
                          .rdata:004033e0 20                               0x20 ' '
                          .rdata:004033e1 74                               0x74 't'
                          .rdata:004033e2 68                               0x68 'h'
                          .rdata:004033e3 65                               0x65 'e'
                          .rdata:004033e4 6e                               0x6e 'n'
                          .rdata:004033e5 20                               0x20 ' '
                          .rdata:004033e6 74                               0x74 't'
                          .rdata:004033e7 79                               0x79 'y'
                          .rdata:004033e8 70                               0x70 'p'
                          .rdata:004033e9 65                               0x65 'e'
                          .rdata:004033ea 20                               0x20 ' '
                          .rdata:004033eb 61                               0x61 'a'
                          .rdata:004033ec 20                               0x20 ' '
                          .rdata:004033ed 6b                               0x6b 'k'
                          .rdata:004033ee 65                               0x65 'e'
                          .rdata:004033ef 79                               0x79 'y'
                          .rdata:004033f0 20                               0x20 ' '
                          .rdata:004033f1 28                               0x28 '('
                          .rdata:004033f2 6f                               0x6f 'o'
                          .rdata:004033f3 72                               0x72 'r'
                          .rdata:004033f4 20                               0x20 ' '
                          .rdata:004033f5 68                               0x68 'h'
                          .rdata:004033f6 69                               0x69 'i'
                          .rdata:004033f7 74                               0x74 't'
                          .rdata:004033f8 20                               0x20 ' '
                          .rdata:004033f9 61                               0x61 'a'
                          .rdata:004033fa 20                               0x20 ' '
                          .rdata:004033fb 6d                               0x6d 'm'
                          .rdata:004033fc 6f                               0x6f 'o'
                          .rdata:004033fd 75                               0x75 'u'
                          .rdata:004033fe 73                               0x73 's'
                          .rdata:004033ff 65                               0x65 'e'
                          .rdata:00403400 20                               0x20 ' '
                          .rdata:00403401 62                               0x62 'b'
                          .rdata:00403402 75                               0x75 'u'
                          .rdata:00403403 74                               0x74 't'
                          .rdata:00403404 74                               0x74 't'
                          .rdata:00403405 6f                               0x6f 'o'
                          .rdata:00403406 6e                               0x6e 'n'
                          .rdata:00403407 29                               0x29 ')'
                          .rdata:00403408 2e                               0x2e '.'
                          .rdata:00403409 0a                               0x0a '
'
                          .rdata:0040340a 20                               0x20 ' '
                          .rdata:0040340b 54                               0x54 'T'
                          .rdata:0040340c 68                               0x68 'h'
                          .rdata:0040340d 61                               0x61 'a'
                          .rdata:0040340e 74                               0x74 't'
                          .rdata:0040340f 20                               0x20 ' '
                          .rdata:00403410 6b                               0x6b 'k'
                          .rdata:00403411 65                               0x65 'e'
                          .rdata:00403412 79                               0x79 'y'
                          .rdata:00403413 20                               0x20 ' '
                          .rdata:00403414 77                               0x77 'w'
                          .rdata:00403415 69                               0x69 'i'
                          .rdata:00403416 6c                               0x6c 'l'
                          .rdata:00403417 6c                               0x6c 'l'
                          .rdata:00403418 20                               0x20 ' '
                          .rdata:00403419 74                               0x74 't'
                          .rdata:0040341a 68                               0x68 'h'
                          .rdata:0040341b 65                               0x65 'e'
                          .rdata:0040341c 6e                               0x6e 'n'
                          .rdata:0040341d 20                               0x20 ' '
                          .rdata:0040341e 74                               0x74 't'
                          .rdata:0040341f 72                               0x72 'r'
                          .rdata:00403420 69                               0x69 'i'
                          .rdata:00403421 67                               0x67 'g'
                          .rdata:00403422 67                               0x67 'g'
                          .rdata:00403423 65                               0x65 'e'
                          .rdata:00403424 72                               0x72 'r'
                          .rdata:00403425 20                               0x20 ' '
                          .rdata:00403426 74                               0x74 't'
                          .rdata:00403427 68                               0x68 'h'
                          .rdata:00403428 65                               0x65 'e'
                          .rdata:00403429 20                               0x20 ' '
                          .rdata:0040342a 6d                               0x6d 'm'
                          .rdata:0040342b 6f                               0x6f 'o'
                          .rdata:0040342c 75                               0x75 'u'
                          .rdata:0040342d 73                               0x73 's'
                          .rdata:0040342e 65                               0x65 'e'
                          .rdata:0040342f 20                               0x20 ' '
                          .rdata:00403430 63                               0x63 'c'
                          .rdata:00403431 6c                               0x6c 'l'
                          .rdata:00403432 69                               0x69 'i'
                          .rdata:00403433 63                               0x63 'c'
                          .rdata:00403434 6b                               0x6b 'k'
                          .rdata:00403435 73                               0x73 's'
                          .rdata:00403436 20                               0x20 ' '
                          .rdata:00403437 77                               0x77 'w'
                          .rdata:00403438 68                               0x68 'h'
                          .rdata:00403439 65                               0x65 'e'
                          .rdata:0040343a 6e                               0x6e 'n'
                          .rdata:0040343b 20                               0x20 ' '
                          .rdata:0040343c 70                               0x70 'p'
                          .rdata:0040343d 72                               0x72 'r'
                          .rdata:0040343e 65                               0x65 'e'
                          .rdata:0040343f 73                               0x73 's'
                          .rdata:00403440 73                               0x73 's'
                          .rdata:00403441 65                               0x65 'e'
                          .rdata:00403442 64                               0x64 'd'
                          .rdata:00403443 2e                               0x2e '.'
                          .rdata:00403444 0a                               0x0a '
'
                          .rdata:00403445 20                               0x20 ' '
                          .rdata:00403446 4e                               0x4e 'N'
                          .rdata:00403447 6f                               0x6f 'o'
                          .rdata:00403448 74                               0x74 't'
                          .rdata:00403449 65                               0x65 'e'
                          .rdata:0040344a 3a                               0x3a ':'
                          .rdata:0040344b 20                               0x20 ' '
                          .rdata:0040344c 59                               0x59 'Y'
                          .rdata:0040344d 6f                               0x6f 'o'
                          .rdata:0040344e 75                               0x75 'u'
                          .rdata:0040344f 20                               0x20 ' '
                          .rdata:00403450 63                               0x63 'c'
                          .rdata:00403451 61                               0x61 'a'
                          .rdata:00403452 6e                               0x6e 'n'
                          .rdata:00403453 27                               0x27 '''
                          .rdata:00403454 74                               0x74 't'
                          .rdata:00403455 20                               0x20 ' '
                          .rdata:00403456 68                               0x68 'h'
                          .rdata:00403457 61                               0x61 'a'
                          .rdata:00403458 76                               0x76 'v'
                          .rdata:00403459 65                               0x65 'e'
                          .rdata:0040345a 20                               0x20 ' '
                          .rdata:0040345b 74                               0x74 't'
                          .rdata:0040345c 68                               0x68 'h'
                          .rdata:0040345d 65                               0x65 'e'
                          .rdata:0040345e 20                               0x20 ' '
                          .rdata:0040345f 73                               0x73 's'
                          .rdata:00403460 61                               0x61 'a'
                          .rdata:00403461 6d                               0x6d 'm'
                          .rdata:00403462 65                               0x65 'e'
                          .rdata:00403463 20                               0x20 ' '
                          .rdata:00403464 6d                               0x6d 'm'
                          .rdata:00403465 6f                               0x6f 'o'
                          .rdata:00403466 75                               0x75 'u'
                          .rdata:00403467 73                               0x73 's'
                          .rdata:00403468 65                               0x65 'e'
                          .rdata:00403469 20                               0x20 ' '
                          .rdata:0040346a 62                               0x62 'b'
                          .rdata:0040346b 75                               0x75 'u'
                          .rdata:0040346c 74                               0x74 't'
                          .rdata:0040346d 74                               0x74 't'
                          .rdata:0040346e 6f                               0x6f 'o'
                          .rdata:0040346f 6e                               0x6e 'n'
                          .rdata:00403470 20                               0x20 ' '
                          .rdata:00403471 62                               0x62 'b'
                          .rdata:00403472 65                               0x65 'e'
                          .rdata:00403473 20                               0x20 ' '
                          .rdata:00403474 74                               0x74 't'
                          .rdata:00403475 68                               0x68 'h'
                          .rdata:00403476 65                               0x65 'e'
                          .rdata:00403477 20                               0x20 ' '
                          .rdata:00403478 74                               0x74 't'
                          .rdata:00403479 72                               0x72 'r'
                          .rdata:0040347a 69                               0x69 'i'
                          .rdata:0040347b 67                               0x67 'g'
                          .rdata:0040347c 67                               0x67 'g'
                          .rdata:0040347d 65                               0x65 'e'
                          .rdata:0040347e 72                               0x72 'r'
                          .rdata:0040347f 20                               0x20 ' '
                          .rdata:00403480 61                               0x61 'a'
                          .rdata:00403481 6e                               0x6e 'n'
                          .rdata:00403482 64                               0x64 'd'
                          .rdata:00403483 20                               0x20 ' '
                          .rdata:00403484 63                               0x63 'c'
                          .rdata:00403485 6c                               0x6c 'l'
                          .rdata:00403486 69                               0x69 'i'
                          .rdata:00403487 63                               0x63 'c'
                          .rdata:00403488 6b                               0x6b 'k'
                          .rdata:00403489 65                               0x65 'e'
                          .rdata:0040348a 72                               0x72 'r'
                          .rdata:0040348b 2e                               0x2e '.'
                          .rdata:0040348c 0a                               0x0a '
'
                          .rdata:0040348d 20                               0x20 ' '
                          .rdata:0040348e 4e                               0x4e 'N'
                          .rdata:0040348f 6f                               0x6f 'o'
                          .rdata:00403490 74                               0x74 't'
                          .rdata:00403491 65                               0x65 'e'
                          .rdata:00403492 3a                               0x3a ':'
                          .rdata:00403493 20                               0x20 ' '
                          .rdata:00403494 59                               0x59 'Y'
                          .rdata:00403495 6f                               0x6f 'o'
                          .rdata:00403496 75                               0x75 'u'
                          .rdata:00403497 20                               0x20 ' '
                          .rdata:00403498 63                               0x63 'c'
                          .rdata:00403499 61                               0x61 'a'
                          .rdata:0040349a 6e                               0x6e 'n'
                          .rdata:0040349b 27                               0x27 '''
                          .rdata:0040349c 74                               0x74 't'
                          .rdata:0040349d 20                               0x20 ' '
                          .rdata:0040349e 63                               0x63 'c'
                          .rdata:0040349f 68                               0x68 'h'
                          .rdata:004034a0 61                               0x61 'a'
                          .rdata:004034a1 6e                               0x6e 'n'
                          .rdata:004034a2 67                               0x67 'g'
                          .rdata:004034a3 65                               0x65 'e'
                          .rdata:004034a4 20                               0x20 ' '
                          .rdata:004034a5 74                               0x74 't'
                          .rdata:004034a6 68                               0x68 'h'
                          .rdata:004034a7 65                               0x65 'e'
                          .rdata:004034a8 20                               0x20 ' '
                          .rdata:004034a9 74                               0x74 't'
                          .rdata:004034aa 72                               0x72 'r'
                          .rdata:004034ab 69                               0x69 'i'
                          .rdata:004034ac 67                               0x67 'g'
                          .rdata:004034ad 67                               0x67 'g'
                          .rdata:004034ae 65                               0x65 'e'
                          .rdata:004034af 72                               0x72 'r'
                          .rdata:004034b0 20                               0x20 ' '
                          .rdata:004034b1 69                               0x69 'i'
                          .rdata:004034b2 66                               0x66 'f'
                          .rdata:004034b3 20                               0x20 ' '
                          .rdata:004034b4 79                               0x79 'y'
                          .rdata:004034b5 6f                               0x6f 'o'
                          .rdata:004034b6 75                               0x75 'u'
                          .rdata:004034b7 20                               0x20 ' '
                          .rdata:004034b8 63                               0x63 'c'
                          .rdata:004034b9 68                               0x68 'h'
                          .rdata:004034ba 6f                               0x6f 'o'
                          .rdata:004034bb 73                               0x73 's'
                          .rdata:004034bc 65                               0x65 'e'
                          .rdata:004034bd 20                               0x20 ' '
                          .rdata:004034be 74                               0x74 't'
                          .rdata:004034bf 68                               0x68 'h'
                          .rdata:004034c0 65                               0x65 'e'
                          .rdata:004034c1 20                               0x20 ' '
                          .rdata:004034c2 6c                               0x6c 'l'
                          .rdata:004034c3 65                               0x65 'e'
                          .rdata:004034c4 66                               0x66 'f'
                          .rdata:004034c5 74                               0x74 't'
                          .rdata:004034c6 20                               0x20 ' '
                          .rdata:004034c7 6d                               0x6d 'm'
                          .rdata:004034c8 6f                               0x6f 'o'
                          .rdata:004034c9 75                               0x75 'u'
                          .rdata:004034ca 73                               0x73 's'
                          .rdata:004034cb 65                               0x65 'e'
                          .rdata:004034cc 20                               0x20 ' '
                          .rdata:004034cd 62                               0x62 'b'
                          .rdata:004034ce 75                               0x75 'u'
                          .rdata:004034cf 74                               0x74 't'
                          .rdata:004034d0 74                               0x74 't'
                          .rdata:004034d1 6f                               0x6f 'o'
                          .rdata:004034d2 6e                               0x6e 'n'
                          .rdata:004034d3 3b                               0x3b ';'
                          .rdata:004034d4 20                               0x20 ' '
                          .rdata:004034d5 79                               0x79 'y'
                          .rdata:004034d6 6f                               0x6f 'o'
                          .rdata:004034d7 75                               0x75 'u'
                          .rdata:004034d8 20                               0x20 ' '
                          .rdata:004034d9 6d                               0x6d 'm'
                          .rdata:004034da 75                               0x75 'u'
                          .rdata:004034db 73                               0x73 's'
                          .rdata:004034dc 74                               0x74 't'
                          .rdata:004034dd 20                               0x20 ' '
                          .rdata:004034de 72                               0x72 'r'
                          .rdata:004034df 65                               0x65 'e'
                          .rdata:004034e0 73                               0x73 's'
                          .rdata:004034e1 74                               0x74 't'
                          .rdata:004034e2 61                               0x61 'a'
                          .rdata:004034e3 72                               0x72 'r'
                          .rdata:004034e4 74                               0x74 't'
                          .rdata:004034e5 20                               0x20 ' '
                          .rdata:004034e6 74                               0x74 't'
                          .rdata:004034e7 68                               0x68 'h'
                          .rdata:004034e8 65                               0x65 'e'
                          .rdata:004034e9 20                               0x20 ' '
                          .rdata:004034ea 70                               0x70 'p'
                          .rdata:004034eb 72                               0x72 'r'
                          .rdata:004034ec 6f                               0x6f 'o'
                          .rdata:004034ed 67                               0x67 'g'
                          .rdata:004034ee 72                               0x72 'r'
                          .rdata:004034ef 61                               0x61 'a'
                          .rdata:004034f0 6d                               0x6d 'm'
                          .rdata:004034f1 2e                               0x2e '.'
                          .rdata:004034f2 0a                               0x0a '
'
                          .rdata:004034f3 20                               0x20 ' '
                          .rdata:004034f4 44                               0x44 'D'
                          .rdata:004034f5 65                               0x65 'e'
                          .rdata:004034f6 66                               0x66 'f'
                          .rdata:004034f7 61                               0x61 'a'
                          .rdata:004034f8 75                               0x75 'u'
                          .rdata:004034f9 6c                               0x6c 'l'
                          .rdata:004034fa 74                               0x74 't'
                          .rdata:004034fb 20                               0x20 ' '
                          .rdata:004034fc 28                               0x28 '('
                          .rdata:004034fd 31                               0x31 '1'
                          .rdata:004034fe 33                               0x33 '3'
                          .rdata:004034ff 29                               0x29 ')'
                          .rdata:00403500 20                               0x20 ' '
                          .rdata:00403501 69                               0x69 'i'
                          .rdata:00403502 73                               0x73 's'
                          .rdata:00403503 20                               0x20 ' '
                          .rdata:00403504 74                               0x74 't'
                          .rdata:00403505 68                               0x68 'h'
                          .rdata:00403506 65                               0x65 'e'
                          .rdata:00403507 20                               0x20 ' '
                          .rdata:00403508 65                               0x65 'e'
                          .rdata:00403509 6e                               0x6e 'n'
                          .rdata:0040350a 74                               0x74 't'
                          .rdata:0040350b 65                               0x65 'e'
                          .rdata:0040350c 72                               0x72 'r'
                          .rdata:0040350d 20                               0x20 ' '
                          .rdata:0040350e 6b                               0x6b 'k'
                          .rdata:0040350f 65                               0x65 'e'
                          .rdata:00403510 79                               0x79 'y'
                          .rdata:00403511 2e                               0x2e '.'
                          .rdata:00403512 0a                               0x0a '
'
                          .rdata:00403513 2d                               0x2d '-'
                          .rdata:00403514 54                               0x54 'T'
                          .rdata:00403515 68                               0x68 'h'
                          .rdata:00403516 65                               0x65 'e'
                          .rdata:00403517 20                               0x20 ' '
                          .rdata:00403518 6c                               0x6c 'l'
                          .rdata:00403519 6f                               0x6f 'o'
                          .rdata:0040351a 77                               0x77 'w'
                          .rdata:0040351b 65                               0x65 'e'
                          .rdata:0040351c 73                               0x73 's'
                          .rdata:0040351d 74                               0x74 't'
                          .rdata:0040351e 20                               0x20 ' '
                          .rdata:0040351f 74                               0x74 't'
                          .rdata:00403520 65                               0x65 'e'
                          .rdata:00403521 78                               0x78 'x'
                          .rdata:00403522 74                               0x74 't'
                          .rdata:00403523 20                               0x20 ' '
                          .rdata:00403524 66                               0x66 'f'
                          .rdata:00403525 69                               0x69 'i'
                          .rdata:00403526 65                               0x65 'e'
                          .rdata:00403527 6c                               0x6c 'l'
                          .rdata:00403528 64                               0x64 'd'
                          .rdata:00403529 20                               0x20 ' '
                          .rdata:0040352a 69                               0x69 'i'
                          .rdata:0040352b 73                               0x73 's'
                          .rdata:0040352c 20                               0x20 ' '
                          .rdata:0040352d 74                               0x74 't'
                          .rdata:0040352e 68                               0x68 'h'
                          .rdata:0040352f 65                               0x65 'e'
                          .rdata:00403530 20                               0x20 ' '
                          .rdata:00403531 6e                               0x6e 'n'
                          .rdata:00403532 75                               0x75 'u'
                          .rdata:00403533 6d                               0x6d 'm'
                          .rdata:00403534 62                               0x62 'b'
                          .rdata:00403535 65                               0x65 'e'
                          .rdata:00403536 72                               0x72 'r'
                          .rdata:00403537 20                               0x20 ' '
                          .rdata:00403538 6f                               0x6f 'o'
                          .rdata:00403539 66                               0x66 'f'
                          .rdata:0040353a 20                               0x20 ' '
                          .rdata:0040353b 63                               0x63 'c'
                          .rdata:0040353c 6c                               0x6c 'l'
                          .rdata:0040353d 69                               0x69 'i'
                          .rdata:0040353e 63                               0x63 'c'
                          .rdata:0040353f 6b                               0x6b 'k'
                          .rdata:00403540 73                               0x73 's'
                          .rdata:00403541 20                               0x20 ' '
                          .rdata:00403542 62                               0x62 'b'
                          .rdata:00403543 65                               0x65 'e'
                          .rdata:00403544 66                               0x66 'f'
                          .rdata:00403545 6f                               0x6f 'o'
                          .rdata:00403546 72                               0x72 'r'
                          .rdata:00403547 65                               0x65 'e'
                          .rdata:00403548 20                               0x20 ' '
                          .rdata:00403549 74                               0x74 't'
                          .rdata:0040354a 68                               0x68 'h'
                          .rdata:0040354b 65                               0x65 'e'
                          .rdata:0040354c 20                               0x20 ' '
                          .rdata:0040354d 63                               0x63 'c'
                          .rdata:0040354e 6c                               0x6c 'l'
                          .rdata:0040354f 69                               0x69 'i'
                          .rdata:00403550 63                               0x63 'c'
                          .rdata:00403551 6b                               0x6b 'k'
                          .rdata:00403552 69                               0x69 'i'
                          .rdata:00403553 6e                               0x6e 'n'
                          .rdata:00403554 67                               0x67 'g'
                          .rdata:00403555 20                               0x20 ' '
                          .rdata:00403556 61                               0x61 'a'
                          .rdata:00403557 75                               0x75 'u'
                          .rdata:00403558 74                               0x74 't'
                          .rdata:00403559 6f                               0x6f 'o'
                          .rdata:0040355a 6d                               0x6d 'm'
                          .rdata:0040355b 61                               0x61 'a'
                          .rdata:0040355c 74                               0x74 't'
                          .rdata:0040355d 69                               0x69 'i'
                          .rdata:0040355e 63                               0x63 'c'
                          .rdata:0040355f 61                               0x61 'a'
                          .rdata:00403560 6c                               0x6c 'l'
                          .rdata:00403561 6c                               0x6c 'l'
                          .rdata:00403562 79                               0x79 'y'
                          .rdata:00403563 20                               0x20 ' '
                          .rdata:00403564 73                               0x73 's'
                          .rdata:00403565 74                               0x74 't'
                          .rdata:00403566 6f                               0x6f 'o'
                          .rdata:00403567 70                               0x70 'p'
                          .rdata:00403568 73                               0x73 's'
                          .rdata:00403569 2e                               0x2e '.'
                          .rdata:0040356a 0a                               0x0a '
'
                          .rdata:0040356b 20                               0x20 ' '
                          .rdata:0040356c 30                               0x30 '0'
                          .rdata:0040356d 20                               0x20 ' '
                          .rdata:0040356e 69                               0x69 'i'
                          .rdata:0040356f 73                               0x73 's'
                          .rdata:00403570 20                               0x20 ' '
                          .rdata:00403571 64                               0x64 'd'
                          .rdata:00403572 65                               0x65 'e'
                          .rdata:00403573 66                               0x66 'f'
                          .rdata:00403574 61                               0x61 'a'
                          .rdata:00403575 75                               0x75 'u'
                          .rdata:00403576 6c                               0x6c 'l'
                          .rdata:00403577 74                               0x74 't'
                          .rdata:00403578 20                               0x20 ' '
                          .rdata:00403579 61                               0x61 'a'
                          .rdata:0040357a 6e                               0x6e 'n'
                          .rdata:0040357b 64                               0x64 'd'
                          .rdata:0040357c 20                               0x20 ' '
                          .rdata:0040357d 6d                               0x6d 'm'
                          .rdata:0040357e 65                               0x65 'e'
                          .rdata:0040357f 61                               0x61 'a'
                          .rdata:00403580 6e                               0x6e 'n'
                          .rdata:00403581 73                               0x73 's'
                          .rdata:00403582 20                               0x20 ' '
                          .rdata:00403583 69                               0x69 'i'
                          .rdata:00403584 6e                               0x6e 'n'
                          .rdata:00403585 66                               0x66 'f'
                          .rdata:00403586 69                               0x69 'i'
                          .rdata:00403587 6e                               0x6e 'n'
                          .rdata:00403588 69                               0x69 'i'
                          .rdata:00403589 74                               0x74 't'
                          .rdata:0040358a 79                               0x79 'y'
                          .rdata:0040358b 2e                               0x2e '.'
                          .rdata:0040358c 0a                               0x0a '
'
                          .rdata:0040358d 2d                               0x2d '-'
                          .rdata:0040358e 54                               0x54 'T'
                          .rdata:0040358f 68                               0x68 'h'
                          .rdata:00403590 65                               0x65 'e'
                          .rdata:00403591 20                               0x20 ' '
                          .rdata:00403592 53                               0x53 'S'
                          .rdata:00403593 54                               0x54 'T'
                          .rdata:00403594 4f                               0x4f 'O'
                          .rdata:00403595 50                               0x50 'P'
                          .rdata:00403596 21                               0x21 '!'
                          .rdata:00403597 20                               0x20 ' '
                          .rdata:00403598 62                               0x62 'b'
                          .rdata:00403599 75                               0x75 'u'
                          .rdata:0040359a 74                               0x74 't'
                          .rdata:0040359b 74                               0x74 't'
                          .rdata:0040359c 6f                               0x6f 'o'
                          .rdata:0040359d 6e                               0x6e 'n'
                          .rdata:0040359e 20                               0x20 ' '
                          .rdata:0040359f 73                               0x73 's'
                          .rdata:004035a0 74                               0x74 't'
                          .rdata:004035a1 6f                               0x6f 'o'
                          .rdata:004035a2 70                               0x70 'p'
                          .rdata:004035a3 73                               0x73 's'
                          .rdata:004035a4 20                               0x20 ' '
                          .rdata:004035a5 74                               0x74 't'
                          .rdata:004035a6 6f                               0x6f 'o'
                          .rdata:004035a7 67                               0x67 'g'
                          .rdata:004035a8 67                               0x67 'g'
                          .rdata:004035a9 6c                               0x6c 'l'
                          .rdata:004035aa 65                               0x65 'e'
                          .rdata:004035ab 64                               0x64 'd'
                          .rdata:004035ac 20                               0x20 ' '
                          .rdata:004035ad 63                               0x63 'c'
                          .rdata:004035ae 6c                               0x6c 'l'
                          .rdata:004035af 69                               0x69 'i'
                          .rdata:004035b0 63                               0x63 'c'
                          .rdata:004035b1 6b                               0x6b 'k'
                          .rdata:004035b2 69                               0x69 'i'
                          .rdata:004035b3 6e                               0x6e 'n'
                          .rdata:004035b4 67                               0x67 'g'
                          .rdata:004035b5 2e                               0x2e '.'
                          .rdata:004035b6 0a                               0x0a '
'
                          .rdata:004035b7 2d                               0x2d '-'
                          .rdata:004035b8 54                               0x54 'T'
                          .rdata:004035b9 68                               0x68 'h'
                          .rdata:004035ba 65                               0x65 'e'
                          .rdata:004035bb 20                               0x20 ' '
                          .rdata:004035bc 74                               0x74 't'
                          .rdata:004035bd 72                               0x72 'r'
                          .rdata:004035be 69                               0x69 'i'
                          .rdata:004035bf 67                               0x67 'g'
                          .rdata:004035c0 67                               0x67 'g'
                          .rdata:004035c1 65                               0x65 'e'
                          .rdata:004035c2 72                               0x72 'r'
                          .rdata:004035c3 20                               0x20 ' '
                          .rdata:004035c4 6b                               0x6b 'k'
                          .rdata:004035c5 65                               0x65 'e'
                          .rdata:004035c6 79                               0x79 'y'
                          .rdata:004035c7 20                               0x20 ' '
                          .rdata:004035c8 73                               0x73 's'
                          .rdata:004035c9 74                               0x74 't'
                          .rdata:004035ca 69                               0x69 'i'
                          .rdata:004035cb 6c                               0x6c 'l'
                          .rdata:004035cc 6c                               0x6c 'l'
                          .rdata:004035cd 20                               0x20 ' '
                          .rdata:004035ce 77                               0x77 'w'
                          .rdata:004035cf 6f                               0x6f 'o'
                          .rdata:004035d0 72                               0x72 'r'
                          .rdata:004035d1 6b                               0x6b 'k'
                          .rdata:004035d2 73                               0x73 's'
                          .rdata:004035d3 20                               0x20 ' '
                          .rdata:004035d4 77                               0x77 'w'
                          .rdata:004035d5 68                               0x68 'h'
                          .rdata:004035d6 65                               0x65 'e'
                          .rdata:004035d7 6e                               0x6e 'n'
                          .rdata:004035d8 20                               0x20 ' '
                          .rdata:004035d9 74                               0x74 't'
                          .rdata:004035da 68                               0x68 'h'
                          .rdata:004035db 69                               0x69 'i'
                          .rdata:004035dc 73                               0x73 's'
                          .rdata:004035dd 20                               0x20 ' '
                          .rdata:004035de 70                               0x70 'p'
                          .rdata:004035df 72                               0x72 'r'
                          .rdata:004035e0 6f                               0x6f 'o'
                          .rdata:004035e1 67                               0x67 'g'
                          .rdata:004035e2 72                               0x72 'r'
                          .rdata:004035e3 61                               0x61 'a'
                          .rdata:004035e4 6d                               0x6d 'm'
                          .rdata:004035e5 20                               0x20 ' '
                          .rdata:004035e6 69                               0x69 'i'
                          .rdata:004035e7 73                               0x73 's'
                          .rdata:004035e8 20                               0x20 ' '
                          .rdata:004035e9 6d                               0x6d 'm'
                          .rdata:004035ea 69                               0x69 'i'
                          .rdata:004035eb 6e                               0x6e 'n'
                          .rdata:004035ec 69                               0x69 'i'
                          .rdata:004035ed 6d                               0x6d 'm'
                          .rdata:004035ee 69                               0x69 'i'
                          .rdata:004035ef 7a                               0x7a 'z'
                          .rdata:004035f0 65                               0x65 'e'
                          .rdata:004035f1 64                               0x64 'd'
                          .rdata:004035f2 2e                               0x2e '.'
                          .rdata:004035f3 0a                               0x0a '
'
                          .rdata:004035f4 2d                               0x2d '-'
                          .rdata:004035f5 59                               0x59 'Y'
                          .rdata:004035f6 6f                               0x6f 'o'
                          .rdata:004035f7 75                               0x75 'u'
                          .rdata:004035f8 20                               0x20 ' '
                          .rdata:004035f9 6d                               0x6d 'm'
                          .rdata:004035fa 75                               0x75 'u'
                          .rdata:004035fb 73                               0x73 's'
                          .rdata:004035fc 74                               0x74 't'
                          .rdata:004035fd 20                               0x20 ' '
                          .rdata:004035fe 63                               0x63 'c'
                          .rdata:004035ff 6c                               0x6c 'l'
                          .rdata:00403600 6f                               0x6f 'o'
                          .rdata:00403601 73                               0x73 's'
                          .rdata:00403602 65                               0x65 'e'
                          .rdata:00403603 20                               0x20 ' '
                          .rdata:00403604 74                               0x74 't'
                          .rdata:00403605 68                               0x68 'h'
                          .rdata:00403606 69                               0x69 'i'
                          .rdata:00403607 73                               0x73 's'
                          .rdata:00403608 20                               0x20 ' '
                          .rdata:00403609 70                               0x70 'p'
                          .rdata:0040360a 72                               0x72 'r'
                          .rdata:0040360b 6f                               0x6f 'o'
                          .rdata:0040360c 67                               0x67 'g'
                          .rdata:0040360d 72                               0x72 'r'
                          .rdata:0040360e 61                               0x61 'a'
                          .rdata:0040360f 6d                               0x6d 'm'
                          .rdata:00403610 20                               0x20 ' '
                          .rdata:00403611 74                               0x74 't'
                          .rdata:00403612 6f                               0x6f 'o'
                          .rdata:00403613 20                               0x20 ' '
                          .rdata:00403614 73                               0x73 's'
                          .rdata:00403615 74                               0x74 't'
                          .rdata:00403616 6f                               0x6f 'o'
                          .rdata:00403617 70                               0x70 'p'
                          .rdata:00403618 20                               0x20 ' '
                          .rdata:00403619 61                               0x61 'a'
                          .rdata:0040361a 20                               0x20 ' '
                          .rdata:0040361b 74                               0x74 't'
                          .rdata:0040361c 72                               0x72 'r'
                          .rdata:0040361d 69                               0x69 'i'
                          .rdata:0040361e 67                               0x67 'g'
                          .rdata:0040361f 67                               0x67 'g'
                          .rdata:00403620 65                               0x65 'e'
                          .rdata:00403621 72                               0x72 'r'
                          .rdata:00403622 20                               0x20 ' '
                          .rdata:00403623 6b                               0x6b 'k'
                          .rdata:00403624 65                               0x65 'e'
                          .rdata:00403625 79                               0x79 'y'
                          .rdata:00403626 20                               0x20 ' '
                          .rdata:00403627 66                               0x66 'f'
                          .rdata:00403628 72                               0x72 'r'
                          .rdata:00403629 6f                               0x6f 'o'
                          .rdata:0040362a 6d                               0x6d 'm'
                          .rdata:0040362b 20                               0x20 ' '
                          .rdata:0040362c 63                               0x63 'c'
                          .rdata:0040362d 6c                               0x6c 'l'
                          .rdata:0040362e 69                               0x69 'i'
                          .rdata:0040362f 63                               0x63 'c'
                          .rdata:00403630 6b                               0x6b 'k'
                          .rdata:00403631 69                               0x69 'i'
                          .rdata:00403632 6e                               0x6e 'n'
                          .rdata:00403633 67                               0x67 'g'
                          .rdata:00403634 2e                               0x2e '.'
                          .rdata:00403635 0a                               0x0a '
'
                          .rdata:00403636 0a                               0x0a '
'
                          .rdata:00403637 55                               0x55 'U'
                          .rdata:00403638 73                               0x73 's'
                          .rdata:00403639 65                               0x65 'e'
                          .rdata:0040363a 20                               0x20 ' '
                          .rdata:0040363b 61                               0x61 'a'
                          .rdata:0040363c 74                               0x74 't'
                          .rdata:0040363d 20                               0x20 ' '
                          .rdata:0040363e 79                               0x79 'y'
                          .rdata:0040363f 6f                               0x6f 'o'
                          .rdata:00403640 75                               0x75 'u'
                          .rdata:00403641 72                               0x72 'r'
                          .rdata:00403642 20                               0x20 ' '
                          .rdata:00403643 6f                               0x6f 'o'
                          .rdata:00403644 77                               0x77 'w'
                          .rdata:00403645 6e                               0x6e 'n'
                          .rdata:00403646 20                               0x20 ' '
                          .rdata:00403647 72                               0x72 'r'
                          .rdata:00403648 69                               0x69 'i'
                          .rdata:00403649 73                               0x73 's'
                          .rdata:0040364a 6b                               0x6b 'k'
                          .rdata:0040364b 2c                               0x2c ','
                          .rdata:0040364c 20                               0x20 ' '
                          .rdata:0040364d 49                               0x49 'I'
                          .rdata:0040364e 20                               0x20 ' '
                          .rdata:0040364f 61                               0x61 'a'
                          .rdata:00403650 73                               0x73 's'
                          .rdata:00403651 73                               0x73 's'
                          .rdata:00403652 75                               0x75 'u'
                          .rdata:00403653 6d                               0x6d 'm'
                          .rdata:00403654 65                               0x65 'e'
                          .rdata:00403655 20                               0x20 ' '
                          .rdata:00403656 6e                               0x6e 'n'
                          .rdata:00403657 6f                               0x6f 'o'
                          .rdata:00403658 20                               0x20 ' '
                          .rdata:00403659 6c                               0x6c 'l'
                          .rdata:0040365a 69                               0x69 'i'
                          .rdata:0040365b 61                               0x61 'a'
                          .rdata:0040365c 62                               0x62 'b'
                          .rdata:0040365d 69                               0x69 'i'
                          .rdata:0040365e 6c                               0x6c 'l'
                          .rdata:0040365f 69                               0x69 'i'
                          .rdata:00403660 74                               0x74 't'
                          .rdata:00403661 79                               0x79 'y'
                          .rdata:00403662 20                               0x20 ' '
                          .rdata:00403663 66                               0x66 'f'
                          .rdata:00403664 6f                               0x6f 'o'
                          .rdata:00403665 72                               0x72 'r'
                          .rdata:00403666 20                               0x20 ' '
                          .rdata:00403667 61                               0x61 'a'
                          .rdata:00403668 6e                               0x6e 'n'
                          .rdata:00403669 79                               0x79 'y'
                          .rdata:0040366a 20                               0x20 ' '
                          .rdata:0040366b 64                               0x64 'd'
                          .rdata:0040366c 61                               0x61 'a'
                          .rdata:0040366d 6d                               0x6d 'm'
                          .rdata:0040366e 61                               0x61 'a'
                          .rdata:0040366f 67                               0x67 'g'
                          .rdata:00403670 65                               0x65 'e'
                          .rdata:00403671 20                               0x20 ' '
                          .rdata:00403672 74                               0x74 't'
                          .rdata:00403673 68                               0x68 'h'
                          .rdata:00403674 69                               0x69 'i'
                          .rdata:00403675 73                               0x73 's'
                          .rdata:00403676 20                               0x20 ' '
                          .rdata:00403677 70                               0x70 'p'
                          .rdata:00403678 72                               0x72 'r'
                          .rdata:00403679 6f                               0x6f 'o'
                          .rdata:0040367a 67                               0x67 'g'
                          .rdata:0040367b 72                               0x72 'r'
                          .rdata:0040367c 61                               0x61 'a'
                          .rdata:0040367d 6d                               0x6d 'm'
                          .rdata:0040367e 20                               0x20 ' '
                          .rdata:0040367f 63                               0x63 'c'
                          .rdata:00403680 61                               0x61 'a'
                          .rdata:00403681 75                               0x75 'u'
                          .rdata:00403682 73                               0x73 's'
                          .rdata:00403683 65                               0x65 'e'
                          .rdata:00403684 73                               0x73 's'
                          .rdata:00403685 2e                               0x2e '.'
                          .rdata:00403686 0a                               0x0a '
'
                          .rdata:00403687 0a                               0x0a '
'
                          .rdata:00403688 50                               0x50 'P'
                          .rdata:00403689 72                               0x72 'r'
                          .rdata:0040368a 6f                               0x6f 'o'
                          .rdata:0040368b 67                               0x67 'g'
                          .rdata:0040368c 72                               0x72 'r'
                          .rdata:0040368d 61                               0x61 'a'
                          .rdata:0040368e 6d                               0x6d 'm'
                          .rdata:0040368f 6d                               0x6d 'm'
                          .rdata:00403690 69                               0x69 'i'
                          .rdata:00403691 6e                               0x6e 'n'
                          .rdata:00403692 67                               0x67 'g'
                          .rdata:00403693 20                               0x20 ' '
                          .rdata:00403694 62                               0x62 'b'
                          .rdata:00403695 79                               0x79 'y'
                          .rdata:00403696 20                               0x20 ' '
                          .rdata:00403697 42                               0x42 'B'
                          .rdata:00403698 6f                               0x6f 'o'
                          .rdata:00403699 72                               0x72 'r'
                          .rdata:0040369a 69                               0x69 'i'
                          .rdata:0040369b 73                               0x73 's'
                          .rdata:0040369c 20                               0x20 ' '
                          .rdata:0040369d 4d                               0x4d 'M'
                          .rdata:0040369e 65                               0x65 'e'
                          .rdata:0040369f 7a                               0x7a 'z'
                          .rdata:004036a0 68                               0x68 'h'
                          .rdata:004036a1 69                               0x69 'i'
                          .rdata:004036a2 62                               0x62 'b'
                          .rdata:004036a3 6f                               0x6f 'o'
                          .rdata:004036a4 76                               0x76 'v'
                          .rdata:004036a5 73                               0x73 's'
                          .rdata:004036a6 6b                               0x6b 'k'
                          .rdata:004036a7 69                               0x69 'i'
                          .rdata:004036a8 79                               0x79 'y'
                          .rdata:004036a9 0a                               0x0a '
'
                          .rdata:004036aa 62                               0x62 'b'
                          .rdata:004036ab 6f                               0x6f 'o'
                          .rdata:004036ac 72                               0x72 'r'
                          .rdata:004036ad 6d                               0x6d 'm'
                          .rdata:004036ae 61                               0x61 'a'
                          .rdata:004036af 6e                               0x6e 'n'
                          .rdata:004036b0 35                               0x35 '5'
                          .rdata:004036b1 30                               0x30 '0'
                          .rdata:004036b2 30                               0x30 '0'
                          .rdata:004036b3 40                               0x40 '@'
                          .rdata:004036b4 6d                               0x6d 'm'
                          .rdata:004036b5 73                               0x73 's'
                          .rdata:004036b6 6e                               0x6e 'n'
                          .rdata:004036b7 2e                               0x2e '.'
                          .rdata:004036b8 63                               0x63 'c'
                          .rdata:004036b9 6f                               0x6f 'o'
                          .rdata:004036ba 6d                               0x6d 'm'
                          .rdata:004036bb 00                               0x00 
                          .rdata:004036bc 00                               0x00 
                          .rdata:004036bd 00                               0x00 
                          .rdata:004036be 80                               0x80 
                          .rdata:004036bf 3f                               0x3f '?'
                          .rdata:004036c0 00                               0x00 
                          .rdata:004036c1 00                               0x00 
                          .rdata:004036c2 00                               0x00 
                          .rdata:004036c3 40                               0x40 '@'
                          .rdata:004036c4 00                               0x00 
                          .rdata:004036c5 00                               0x00 
                          .rdata:004036c6 00                               0x00 
                          .rdata:004036c7 00                               0x00 
                          .rdata:004036c8 00                               0x00 
                          .rdata:004036c9 00                               0x00 
                          .rdata:004036ca 00                               0x00 
                          .rdata:004036cb 00                               0x00 
                          .rdata:004036cc 00                               0x00 
                          .rdata:004036cd 00                               0x00 
                          .rdata:004036ce 00                               0x00 
                          .rdata:004036cf 00                               0x00 
                          .rdata:004036d0 00                               0x00 
                          .rdata:004036d1 00                               0x00 
                          .rdata:004036d2 00                               0x00 
                          .rdata:004036d3 00                               0x00 
                          .rdata:004036d4 00                               0x00 
                          .rdata:004036d5 00                               0x00 
                          .rdata:004036d6 00                               0x00 
                          .rdata:004036d7 00                               0x00 
                          .rdata:004036d8 00                               0x00 
                          .rdata:004036d9 00                               0x00 
                          .rdata:004036da 00                               0x00 
                          .rdata:004036db 00                               0x00 
                          .rdata:004036dc 00                               0x00 
                          .rdata:004036dd 00                               0x00 
                          .rdata:004036de f0                               0xf0 
                          .rdata:004036df 41                               0x41 'A'
                          .rdata:004036e0 ff                               0xff 
                          .rdata:004036e1 ff                               0xff 
                          .rdata:004036e2 ff                               0xff 
                          .rdata:004036e3 ff                               0xff 
                          .rdata:004036e4 ff                               0xff 
                          .rdata:004036e5 ff                               0xff 
                          .rdata:004036e6 0f                               0x0f 
                          .rdata:004036e7 00                               0x00 
                          .rdata:004036e8 00                               0x00 
                          .rdata:004036e9 00                               0x00 
                          .rdata:004036ea 00                               0x00 
                          .rdata:004036eb 00                               0x00 
                          .rdata:004036ec 00                               0x00 
                          .rdata:004036ed 00                               0x00 
                          .rdata:004036ee 10                               0x10 
                          .rdata:004036ef 00                               0x00 
                          .rdata:004036f0 00                               0x00 
                          .rdata:004036f1 00                               0x00 
                          .rdata:004036f2 00                               0x00 
                          .rdata:004036f3 00                               0x00 
                          .rdata:004036f4 00                               0x00 
                          .rdata:004036f5 00                               0x00 
                          .rdata:004036f6 00                               0x00 
                          .rdata:004036f7 80                               0x80 
                          .rdata:004036f8 00                               0x00 
                          .rdata:004036f9 00                               0x00 
                          .rdata:004036fa 00                               0x00 
                          .rdata:004036fb 00                               0x00 
                          .rdata:004036fc 00                               0x00 
                          .rdata:004036fd 00                               0x00 
                          .rdata:004036fe 10                               0x10 
                          .rdata:004036ff 00                               0x00 
                          .rdata:00403700 00                               0x00 
                          .rdata:00403701 00                               0x00 
                          .rdata:00403702 00                               0x00 
                          .rdata:00403703 00                               0x00 
                          .rdata:00403704 00                               0x00 
                          .rdata:00403705 00                               0x00 
                          .rdata:00403706 e0                               0xe0 
                          .rdata:00403707 c3                               0xc3 
                          .rdata:00403708 00                               0x00 
                          .rdata:00403709 00                               0x00 
                          .rdata:0040370a 00                               0x00 
                          .rdata:0040370b 00                               0x00 
                          .rdata:0040370c 00                               0x00 
                          .rdata:0040370d 00                               0x00 
                          .rdata:0040370e e0                               0xe0 
                          .rdata:0040370f 43                               0x43 'C'
                          .rdata:00403710 00                               0x00 
                          .rdata:00403711 00                               0x00 
                          .rdata:00403712 00                               0x00 
                          .rdata:00403713 00                               0x00 
                          .rdata:00403714 00                               0x00 
                          .rdata:00403715 00                               0x00 
                          .rdata:00403716 f0                               0xf0 
                          .rdata:00403717 43                               0x43 'C'
                          .rdata:00403718 00                               0x00 
                          .rdata:00403719 00                               0x00 
                          .rdata:0040371a 00                               0x00 
                          .rdata:0040371b f0                               0xf0 
                          .rdata:0040371c ff                               0xff 
                          .rdata:0040371d ff                               0xff 
                          .rdata:0040371e ef                               0xef 
                          .rdata:0040371f 47                               0x47 'G'
                          .rdata:00403720 00                               0x00 
                          .rdata:00403721 00                               0x00 
                          .rdata:00403722 00                               0x00 
                          .rdata:00403723 f0                               0xf0 
                          .rdata:00403724 ff                               0xff 
                          .rdata:00403725 ff                               0xff 
                          .rdata:00403726 0f                               0x0f 
                          .rdata:00403727 38                               0x38 '8'
                          .rdata:00403728 00                               0x00 
                          .rdata:00403729 00                               0x00 
                          .rdata:0040372a 00                               0x00 
                          .rdata:0040372b 00                               0x00 
                          .rdata:0040372c 00                               0x00 
                          .rdata:0040372d 00                               0x00 
                          .rdata:0040372e 60                               0x60 '`'
                          .rdata:0040372f 45                               0x45 'E'
                          .rdata:00403730 08                               0x08 
                          .rdata:00403731 10                               0x10 
                          .rdata:00403732 00                               0x00 
                          .rdata:00403733 00                               0x00 
                          .rdata:00403734 00                               0x00 
                          .rdata:00403735 00                               0x00 
                          .rdata:00403736 00                               0x00 
                          .rdata:00403737 01                               0x01 
                          .rdata:00403738 00                               0x00 
                          .rdata:00403739 00                               0x00 
                          .rdata:0040373a 00                               0x00 
                          .rdata:0040373b 00                               0x00 
                          .rdata:0040373c 00                               0x00 
                          .rdata:0040373d 00                               0x00 
                          .rdata:0040373e f0                               0xf0 
                          .rdata:0040373f 20                               0x20 ' '
                          .rdata:00403740 33                               0x33 '3'
                          .rdata:00403741 04                               0x04 
                          .rdata:00403742 00                               0x00 
                          .rdata:00403743 00                               0x00 
                          .rdata:00403744 3f                               0x3f '?'
                          .rdata:00403745 04                               0x04 
                          .rdata:00403746 00                               0x00 
                          .rdata:00403747 00                               0x00 
                          .rdata:00403748 00                               0x00 
                          .rdata:00403749 08                               0x08 
                          .rdata:0040374a 00                               0x00 
                          .rdata:0040374b 00                               0x00 
                          .rdata:0040374c ff                               0xff 
                          .rdata:0040374d 17                               0x17 
                          .rdata:0040374e 00                               0x00 
                          .rdata:0040374f 00                               0x00 
                          .rdata:00403750 3f                               0x3f '?'
                          .rdata:00403751 13                               0x13 
                          .rdata:00403752 00                               0x00 
                          .rdata:00403753 00                               0x00 
                          .rdata:00403754 00                               0x00 
                          .rdata:00403755 00                               0x00 
                          .rdata:00403756 00                               0x00 
                          .rdata:00403757 00                               0x00 
                          .rdata:00403758 00                               0x00 
                          .rdata:00403759 00                               0x00 
                          .rdata:0040375a 00                               0x00 
                          .rdata:0040375b 00                               0x00 
                          .rdata:0040375c 00                               0x00 
                          .rdata:0040375d 00                               0x00 
                          .rdata:0040375e 00                               0x00 
                          .rdata:0040375f 00                               0x00 
                          .rdata:00403760 00                               0x00 
                          .rdata:00403761 00                               0x00 
                          .rdata:00403762 00                               0x00 
                          .rdata:00403763 00                               0x00 
                          .rdata:00403764 87                               0x87 
                          .rdata:00403765 b6                               0xb6 
                          .rdata:00403766 06                               0x06 
                          .rdata:00403767 57                               0x57 'W'
                          .rdata:00403768 00                               0x00 
                          .rdata:00403769 00                               0x00 
                          .rdata:0040376a 00                               0x00 
                          .rdata:0040376b 00                               0x00 
                          .rdata:0040376c 02                               0x02 
                          .rdata:0040376d 00                               0x00 
                          .rdata:0040376e 00                               0x00 
                          .rdata:0040376f 00                               0x00 
                          .rdata:00403770 75                               0x75 'u'
                          .rdata:00403771 00                               0x00 
                          .rdata:00403772 00                               0x00 
                          .rdata:00403773 00                               0x00 
                          .rdata:00403774 34                               0x34 '4'
                          .rdata:00403775 38                               0x38 '8'
                          .rdata:00403776 00                               0x00 
                          .rdata:00403777 00                               0x00 
                          .rdata:00403778 34                               0x34 '4'
                          .rdata:00403779 2c                               0x2c ','
                          .rdata:0040377a 00                               0x00 
                          .rdata:0040377b 00                               0x00 
                          .rdata:0040377c 00                               0x00 
                          .rdata:0040377d 00                               0x00 
                          .rdata:0040377e 00                               0x00 
                          .rdata:0040377f 00                               0x00 
                          .rdata:00403780 87                               0x87 
                          .rdata:00403781 b6                               0xb6 
                          .rdata:00403782 06                               0x06 
                          .rdata:00403783 57                               0x57 'W'
                          .rdata:00403784 00                               0x00 
                          .rdata:00403785 00                               0x00 
                          .rdata:00403786 00                               0x00 
                          .rdata:00403787 00                               0x00 
                          .rdata:00403788 0c                               0x0c ''
                          .rdata:00403789 00                               0x00 
                          .rdata:0040378a 00                               0x00 
                          .rdata:0040378b 00                               0x00 
                          .rdata:0040378c 14                               0x14 
                          .rdata:0040378d 00                               0x00 
                          .rdata:0040378e 00                               0x00 
                          .rdata:0040378f 00                               0x00 
                          .rdata:00403790 ac                               0xac 
                          .rdata:00403791 38                               0x38 '8'
                          .rdata:00403792 00                               0x00 
                          .rdata:00403793 00                               0x00 
                          .rdata:00403794 ac                               0xac 
                          .rdata:00403795 2c                               0x2c ','
                          .rdata:00403796 00                               0x00 
                          .rdata:00403797 00                               0x00 
                          .rdata:00403798 00                               0x00 
                          .rdata:00403799 00                               0x00 
                          .rdata:0040379a 00                               0x00 
                          .rdata:0040379b 00                               0x00 
                          .rdata:0040379c 87                               0x87 
                          .rdata:0040379d b6                               0xb6 
                          .rdata:0040379e 06                               0x06 
                          .rdata:0040379f 57                               0x57 'W'
                          .rdata:004037a0 00                               0x00 
                          .rdata:004037a1 00                               0x00 
                          .rdata:004037a2 00                               0x00 
                          .rdata:004037a3 00                               0x00 
                          .rdata:004037a4 0d                               0x0d '
'
                          .rdata:004037a5 00                               0x00 
                          .rdata:004037a6 00                               0x00 
                          .rdata:004037a7 00                               0x00 
                          .rdata:004037a8 68                               0x68 'h'
                          .rdata:004037a9 02                               0x02 
                          .rdata:004037aa 00                               0x00 
                          .rdata:004037ab 00                               0x00 
                          .rdata:004037ac c0                               0xc0 
                          .rdata:004037ad 38                               0x38 '8'
                          .rdata:004037ae 00                               0x00 
                          .rdata:004037af 00                               0x00 
                          .rdata:004037b0 c0                               0xc0 
                          .rdata:004037b1 2c                               0x2c ','
                          .rdata:004037b2 00                               0x00 
                          .rdata:004037b3 00                               0x00 
                          .rdata:004037b4 00                               0x00 
                          .rdata:004037b5 00                               0x00 
                          .rdata:004037b6 00                               0x00 
                          .rdata:004037b7 00                               0x00 
                          .rdata:004037b8 87                               0x87 
                          .rdata:004037b9 b6                               0xb6 
                          .rdata:004037ba 06                               0x06 
                          .rdata:004037bb 57                               0x57 'W'
                          .rdata:004037bc 00                               0x00 
                          .rdata:004037bd 00                               0x00 
                          .rdata:004037be 00                               0x00 
                          .rdata:004037bf 00                               0x00 
                          .rdata:004037c0 0e                               0x0e 
                          .rdata:004037c1 00                               0x00 
                          .rdata:004037c2 00                               0x00 
                          .rdata:004037c3 00                               0x00 
                          .rdata:004037c4 00                               0x00 
                          .rdata:004037c5 00                               0x00 
                          .rdata:004037c6 00                               0x00 
                          .rdata:004037c7 00                               0x00 
                          .rdata:004037c8 00                               0x00 
                          .rdata:004037c9 00                               0x00 
                          .rdata:004037ca 00                               0x00 
                          .rdata:004037cb 00                               0x00 
                          .rdata:004037cc 00                               0x00 
                          .rdata:004037cd 00                               0x00 
                          .rdata:004037ce 00                               0x00 
                          .rdata:004037cf 00                               0x00 
                          .rdata:004037d0 5c                               0x5c '\'
                          .rdata:004037d1 00                               0x00 
                          .rdata:004037d2 00                               0x00 
                          .rdata:004037d3 00                               0x00 
                          .rdata:004037d4 00                               0x00 
                          .rdata:004037d5 00                               0x00 
                          .rdata:004037d6 00                               0x00 
                          .rdata:004037d7 00                               0x00 
                          .rdata:004037d8 00                               0x00 
                          .rdata:004037d9 00                               0x00 
                          .rdata:004037da 00                               0x00 
                          .rdata:004037db 00                               0x00 
                          .rdata:004037dc 00                               0x00 
                          .rdata:004037dd 00                               0x00 
                          .rdata:004037de 00                               0x00 
                          .rdata:004037df 00                               0x00 
                          .rdata:004037e0 00                               0x00 
                          .rdata:004037e1 00                               0x00 
                          .rdata:004037e2 00                               0x00 
                          .rdata:004037e3 00                               0x00 
                          .rdata:004037e4 00                               0x00 
                          .rdata:004037e5 00                               0x00 
                          .rdata:004037e6 00                               0x00 
                          .rdata:004037e7 00                               0x00 
                          .rdata:004037e8 00                               0x00 
                          .rdata:004037e9 00                               0x00 
                          .rdata:004037ea 00                               0x00 
                          .rdata:004037eb 00                               0x00 
                          .rdata:004037ec 00                               0x00 
                          .rdata:004037ed 00                               0x00 
                          .rdata:004037ee 00                               0x00 
                          .rdata:004037ef 00                               0x00 
                          .rdata:004037f0 00                               0x00 
                          .rdata:004037f1 00                               0x00 
                          .rdata:004037f2 00                               0x00 
                          .rdata:004037f3 00                               0x00 
                          .rdata:004037f4 00                               0x00 
                          .rdata:004037f5 00                               0x00 
                          .rdata:004037f6 00                               0x00 
                          .rdata:004037f7 00                               0x00 
                          .rdata:004037f8 00                               0x00 
                          .rdata:004037f9 00                               0x00 
                          .rdata:004037fa 00                               0x00 
                          .rdata:004037fb 00                               0x00 
                          .rdata:004037fc 00                               0x00 
                          .rdata:004037fd 00                               0x00 
                          .rdata:004037fe 00                               0x00 
                          .rdata:004037ff 00                               0x00 
                          .rdata:00403800 00                               0x00 
                          .rdata:00403801 00                               0x00 
                          .rdata:00403802 00                               0x00 
                          .rdata:00403803 00                               0x00 
                          .rdata:00403804 00                               0x00 
                          .rdata:00403805 00                               0x00 
                          .rdata:00403806 00                               0x00 
                          .rdata:00403807 00                               0x00 
                          .rdata:00403808 00                               0x00 
                          .rdata:00403809 00                               0x00 
                          .rdata:0040380a 00                               0x00 
                          .rdata:0040380b 00                               0x00 
                          .rdata:0040380c 04                               0x04 
                          .rdata:0040380d 50                               0x50 'P'
                          .rdata:0040380e 40                               0x40 '@'
                          .rdata:0040380f 00                               0x00 
                          .rdata:00403810 30                               0x30 '0'
                          .rdata:00403811 38                               0x38 '8'
                          .rdata:00403812 40                               0x40 '@'
                          .rdata:00403813 00                               0x00 
                          .rdata:00403814 01                               0x01 
                          .rdata:00403815 00                               0x00 
                          .rdata:00403816 00                               0x00 
                          .rdata:00403817 00                               0x00 
                          .rdata:00403818 3c                               0x3c '<'
                          .rdata:00403819 31                               0x31 '1'
                          .rdata:0040381a 40                               0x40 '@'
                          .rdata:0040381b 00                               0x00 
                          .rdata:0040381c 00                               0x00 
                          .rdata:0040381d 00                               0x00 
                          .rdata:0040381e 00                               0x00 
                          .rdata:0040381f 00                               0x00 
                          .rdata:00403820 00                               0x00 
                          .rdata:00403821 00                               0x00 
                          .rdata:00403822 00                               0x00 
                          .rdata:00403823 00                               0x00 
                          .rdata:00403824 00                               0x00 
                          .rdata:00403825 00                               0x00 
                          .rdata:00403826 00                               0x00 
                          .rdata:00403827 00                               0x00 
                          .rdata:00403828 00                               0x00 
                          .rdata:00403829 01                               0x01 
                          .rdata:0040382a 00                               0x00 
                          .rdata:0040382b 00                               0x00 
                          .rdata:0040382c 00                               0x00 
                          .rdata:0040382d 00                               0x00 
                          .rdata:0040382e 00                               0x00 
                          .rdata:0040382f 00                               0x00 
                          .rdata:00403830 5b                               0x5b '['
                          .rdata:00403831 29                               0x29 ')'
                          .rdata:00403832 00                               0x00 
                          .rdata:00403833 00                               0x00 
                          .rdata:00403834 52                               0x52 'R'
                          .rdata:00403835 53                               0x53 'S'
                          .rdata:00403836 44                               0x44 'D'
                          .rdata:00403837 53                               0x53 'S'
                          .rdata:00403838 4e                               0x4e 'N'
                          .rdata:00403839 53                               0x53 'S'
                          .rdata:0040383a 99                               0x99 
                          .rdata:0040383b de                               0xde 
                          .rdata:0040383c 31                               0x31 '1'
                          .rdata:0040383d ee                               0xee 
                          .rdata:0040383e 45                               0x45 'E'
                          .rdata:0040383f 44                               0x44 'D'
                          .rdata:00403840 9d                               0x9d 
                          .rdata:00403841 84                               0x84 
                          .rdata:00403842 3a                               0x3a ':'
                          .rdata:00403843 ca                               0xca 
                          .rdata:00403844 1f                               0x1f 
                          .rdata:00403845 3a                               0x3a ':'
                          .rdata:00403846 18                               0x18 
                          .rdata:00403847 a8                               0xa8 
                          .rdata:00403848 01                               0x01 
                          .rdata:00403849 00                               0x00 
                          .rdata:0040384a 00                               0x00 
                          .rdata:0040384b 00                               0x00 
                          .rdata:0040384c 63                               0x63 'c'
                          .rdata:0040384d 3a                               0x3a ':'
                          .rdata:0040384e 5c                               0x5c '\'
                          .rdata:0040384f 75                               0x75 'u'
                          .rdata:00403850 73                               0x73 's'
                          .rdata:00403851 65                               0x65 'e'
                          .rdata:00403852 72                               0x72 'r'
                          .rdata:00403853 73                               0x73 's'
                          .rdata:00403854 5c                               0x5c '\'
                          .rdata:00403855 62                               0x62 'b'
                          .rdata:00403856 6f                               0x6f 'o'
                          .rdata:00403857 72                               0x72 'r'
                          .rdata:00403858 69                               0x69 'i'
                          .rdata:00403859 73                               0x73 's'
                          .rdata:0040385a 5c                               0x5c '\'
                          .rdata:0040385b 64                               0x64 'd'
                          .rdata:0040385c 6f                               0x6f 'o'
                          .rdata:0040385d 63                               0x63 'c'
                          .rdata:0040385e 75                               0x75 'u'
                          .rdata:0040385f 6d                               0x6d 'm'
                          .rdata:00403860 65                               0x65 'e'
                          .rdata:00403861 6e                               0x6e 'n'
                          .rdata:00403862 74                               0x74 't'
                          .rdata:00403863 73                               0x73 's'
                          .rdata:00403864 5c                               0x5c '\'
                          .rdata:00403865 76                               0x76 'v'
                          .rdata:00403866 69                               0x69 'i'
                          .rdata:00403867 73                               0x73 's'
                          .rdata:00403868 75                               0x75 'u'
                          .rdata:00403869 61                               0x61 'a'
                          .rdata:0040386a 6c                               0x6c 'l'
                          .rdata:0040386b 20                               0x20 ' '
                          .rdata:0040386c 73                               0x73 's'
                          .rdata:0040386d 74                               0x74 't'
                          .rdata:0040386e 75                               0x75 'u'
                          .rdata:0040386f 64                               0x64 'd'
                          .rdata:00403870 69                               0x69 'i'
                          .rdata:00403871 6f                               0x6f 'o'
                          .rdata:00403872 20                               0x20 ' '
                          .rdata:00403873 32                               0x32 '2'
                          .rdata:00403874 30                               0x30 '0'
                          .rdata:00403875 31                               0x31 '1'
                          .rdata:00403876 35                               0x35 '5'
                          .rdata:00403877 5c                               0x5c '\'
                          .rdata:00403878 50                               0x50 'P'
                          .rdata:00403879 72                               0x72 'r'
                          .rdata:0040387a 6f                               0x6f 'o'
                          .rdata:0040387b 6a                               0x6a 'j'
                          .rdata:0040387c 65                               0x65 'e'
                          .rdata:0040387d 63                               0x63 'c'
                          .rdata:0040387e 74                               0x74 't'
                          .rdata:0040387f 73                               0x73 's'
                          .rdata:00403880 5c                               0x5c '\'
                          .rdata:00403881 57                               0x57 'W'
                          .rdata:00403882 69                               0x69 'i'
                          .rdata:00403883 6e                               0x6e 'n'
                          .rdata:00403884 33                               0x33 '3'
                          .rdata:00403885 32                               0x32 '2'
                          .rdata:00403886 50                               0x50 'P'
                          .rdata:00403887 72                               0x72 'r'
                          .rdata:00403888 6f                               0x6f 'o'
                          .rdata:00403889 6a                               0x6a 'j'
                          .rdata:0040388a 65                               0x65 'e'
                          .rdata:0040388b 63                               0x63 'c'
                          .rdata:0040388c 74                               0x74 't'
                          .rdata:0040388d 31                               0x31 '1'
                          .rdata:0040388e 5c                               0x5c '\'
                          .rdata:0040388f 52                               0x52 'R'
                          .rdata:00403890 65                               0x65 'e'
                          .rdata:00403891 6c                               0x6c 'l'
                          .rdata:00403892 65                               0x65 'e'
                          .rdata:00403893 61                               0x61 'a'
                          .rdata:00403894 73                               0x73 's'
                          .rdata:00403895 65                               0x65 'e'
                          .rdata:00403896 5c                               0x5c '\'
                          .rdata:00403897 57                               0x57 'W'
                          .rdata:00403898 69                               0x69 'i'
                          .rdata:00403899 6e                               0x6e 'n'
                          .rdata:0040389a 33                               0x33 '3'
                          .rdata:0040389b 32                               0x32 '2'
                          .rdata:0040389c 50                               0x50 'P'
                          .rdata:0040389d 72                               0x72 'r'
                          .rdata:0040389e 6f                               0x6f 'o'
                          .rdata:0040389f 6a                               0x6a 'j'
                          .rdata:004038a0 65                               0x65 'e'
                          .rdata:004038a1 63                               0x63 'c'
                          .rdata:004038a2 74                               0x74 't'
                          .rdata:004038a3 31                               0x31 '1'
                          .rdata:004038a4 2e                               0x2e '.'
                          .rdata:004038a5 70                               0x70 'p'
                          .rdata:004038a6 64                               0x64 'd'
                          .rdata:004038a7 62                               0x62 'b'
                          .rdata:004038a8 00                               0x00 
                          .rdata:004038a9 00                               0x00 
                          .rdata:004038aa 00                               0x00 
                          .rdata:004038ab 00                               0x00 
                          .rdata:004038ac 00                               0x00 
                          .rdata:004038ad 00                               0x00 
                          .rdata:004038ae 00                               0x00 
                          .rdata:004038af 00                               0x00 
                          .rdata:004038b0 20                               0x20 ' '
                          .rdata:004038b1 00                               0x00 
                          .rdata:004038b2 00                               0x00 
                          .rdata:004038b3 00                               0x00 
                          .rdata:004038b4 20                               0x20 ' '
                          .rdata:004038b5 00                               0x00 
                          .rdata:004038b6 00                               0x00 
                          .rdata:004038b7 00                               0x00 
                          .rdata:004038b8 00                               0x00 
                          .rdata:004038b9 00                               0x00 
                          .rdata:004038ba 00                               0x00 
                          .rdata:004038bb 00                               0x00 
                          .rdata:004038bc 1f                               0x1f 
                          .rdata:004038bd 00                               0x00 
                          .rdata:004038be 00                               0x00 
                          .rdata:004038bf 00                               0x00 
                          .rdata:004038c0 47                               0x47 'G'
                          .rdata:004038c1 43                               0x43 'C'
                          .rdata:004038c2 54                               0x54 'T'
                          .rdata:004038c3 4c                               0x4c 'L'
                          .rdata:004038c4 00                               0x00 
                          .rdata:004038c5 10                               0x10 
                          .rdata:004038c6 00                               0x00 
                          .rdata:004038c7 00                               0x00 
                          .rdata:004038c8 5e                               0x5e '^'
                          .rdata:004038c9 1f                               0x1f 
                          .rdata:004038ca 00                               0x00 
                          .rdata:004038cb 00                               0x00 
                          .rdata:004038cc 2e                               0x2e '.'
                          .rdata:004038cd 74                               0x74 't'
                          .rdata:004038ce 65                               0x65 'e'
                          .rdata:004038cf 78                               0x78 'x'
                          .rdata:004038d0 74                               0x74 't'
                          .rdata:004038d1 24                               0x24 '$'
                          .rdata:004038d2 6d                               0x6d 'm'
                          .rdata:004038d3 6e                               0x6e 'n'
                          .rdata:004038d4 00                               0x00 
                          .rdata:004038d5 00                               0x00 
                          .rdata:004038d6 00                               0x00 
                          .rdata:004038d7 00                               0x00 
                          .rdata:004038d8 00                               0x00 
                          .rdata:004038d9 30                               0x30 '0'
                          .rdata:004038da 00                               0x00 
                          .rdata:004038db 00                               0x00 
                          .rdata:004038dc 3c                               0x3c '<'
                          .rdata:004038dd 01                               0x01 
                          .rdata:004038de 00                               0x00 
                          .rdata:004038df 00                               0x00 
                          .rdata:004038e0 2e                               0x2e '.'
                          .rdata:004038e1 69                               0x69 'i'
                          .rdata:004038e2 64                               0x64 'd'
                          .rdata:004038e3 61                               0x61 'a'
                          .rdata:004038e4 74                               0x74 't'
                          .rdata:004038e5 61                               0x61 'a'
                          .rdata:004038e6 24                               0x24 '$'
                          .rdata:004038e7 35                               0x35 '5'
                          .rdata:004038e8 00                               0x00 
                          .rdata:004038e9 00                               0x00 
                          .rdata:004038ea 00                               0x00 
                          .rdata:004038eb 00                               0x00 
                          .rdata:004038ec 3c                               0x3c '<'
                          .rdata:004038ed 31                               0x31 '1'
                          .rdata:004038ee 00                               0x00 
                          .rdata:004038ef 00                               0x00 
                          .rdata:004038f0 04                               0x04 
                          .rdata:004038f1 00                               0x00 
                          .rdata:004038f2 00                               0x00 
                          .rdata:004038f3 00                               0x00 
                          .rdata:004038f4 2e                               0x2e '.'
                          .rdata:004038f5 30                               0x30 '0'
                          .rdata:004038f6 30                               0x30 '0'
                          .rdata:004038f7 63                               0x63 'c'
                          .rdata:004038f8 66                               0x66 'f'
                          .rdata:004038f9 67                               0x67 'g'
                          .rdata:004038fa 00                               0x00 
                          .rdata:004038fb 00                               0x00 
                          .rdata:004038fc 40                               0x40 '@'
                          .rdata:004038fd 31                               0x31 '1'
                          .rdata:004038fe 00                               0x00 
                          .rdata:004038ff 00                               0x00 
                          .rdata:00403900 04                               0x04 
                          .rdata:00403901 00                               0x00 
                          .rdata:00403902 00                               0x00 
                          .rdata:00403903 00                               0x00 
                          .rdata:00403904 2e                               0x2e '.'
                          .rdata:00403905 43                               0x43 'C'
                          .rdata:00403906 52                               0x52 'R'
                          .rdata:00403907 54                               0x54 'T'
                          .rdata:00403908 24                               0x24 '$'
                          .rdata:00403909 58                               0x58 'X'
                          .rdata:0040390a 43                               0x43 'C'
                          .rdata:0040390b 41                               0x41 'A'
                          .rdata:0040390c 00                               0x00 
                          .rdata:0040390d 00                               0x00 
                          .rdata:0040390e 00                               0x00 
                          .rdata:0040390f 00                               0x00 
                          .rdata:00403910 44                               0x44 'D'
                          .rdata:00403911 31                               0x31 '1'
                          .rdata:00403912 00                               0x00 
                          .rdata:00403913 00                               0x00 
                          .rdata:00403914 04                               0x04 
                          .rdata:00403915 00                               0x00 
                          .rdata:00403916 00                               0x00 
                          .rdata:00403917 00                               0x00 
                          .rdata:00403918 2e                               0x2e '.'
                          .rdata:00403919 43                               0x43 'C'
                          .rdata:0040391a 52                               0x52 'R'
                          .rdata:0040391b 54                               0x54 'T'
                          .rdata:0040391c 24                               0x24 '$'
                          .rdata:0040391d 58                               0x58 'X'
                          .rdata:0040391e 43                               0x43 'C'
                          .rdata:0040391f 41                               0x41 'A'
                          .rdata:00403920 41                               0x41 'A'
                          .rdata:00403921 00                               0x00 
                          .rdata:00403922 00                               0x00 
                          .rdata:00403923 00                               0x00 
                          .rdata:00403924 48                               0x48 'H'
                          .rdata:00403925 31                               0x31 '1'
                          .rdata:00403926 00                               0x00 
                          .rdata:00403927 00                               0x00 
                          .rdata:00403928 04                               0x04 
                          .rdata:00403929 00                               0x00 
                          .rdata:0040392a 00                               0x00 
                          .rdata:0040392b 00                               0x00 
                          .rdata:0040392c 2e                               0x2e '.'
                          .rdata:0040392d 43                               0x43 'C'
                          .rdata:0040392e 52                               0x52 'R'
                          .rdata:0040392f 54                               0x54 'T'
                          .rdata:00403930 24                               0x24 '$'
                          .rdata:00403931 58                               0x58 'X'
                          .rdata:00403932 43                               0x43 'C'
                          .rdata:00403933 5a                               0x5a 'Z'
                          .rdata:00403934 00                               0x00 
                          .rdata:00403935 00                               0x00 
                          .rdata:00403936 00                               0x00 
                          .rdata:00403937 00                               0x00 
                          .rdata:00403938 4c                               0x4c 'L'
                          .rdata:00403939 31                               0x31 '1'
                          .rdata:0040393a 00                               0x00 
                          .rdata:0040393b 00                               0x00 
                          .rdata:0040393c 04                               0x04 
                          .rdata:0040393d 00                               0x00 
                          .rdata:0040393e 00                               0x00 
                          .rdata:0040393f 00                               0x00 
                          .rdata:00403940 2e                               0x2e '.'
                          .rdata:00403941 43                               0x43 'C'
                          .rdata:00403942 52                               0x52 'R'
                          .rdata:00403943 54                               0x54 'T'
                          .rdata:00403944 24                               0x24 '$'
                          .rdata:00403945 58                               0x58 'X'
                          .rdata:00403946 49                               0x49 'I'
                          .rdata:00403947 41                               0x41 'A'
                          .rdata:00403948 00                               0x00 
                          .rdata:00403949 00                               0x00 
                          .rdata:0040394a 00                               0x00 
                          .rdata:0040394b 00                               0x00 
                          .rdata:0040394c 50                               0x50 'P'
                          .rdata:0040394d 31                               0x31 '1'
                          .rdata:0040394e 00                               0x00 
                          .rdata:0040394f 00                               0x00 
                          .rdata:00403950 04                               0x04 
                          .rdata:00403951 00                               0x00 
                          .rdata:00403952 00                               0x00 
                          .rdata:00403953 00                               0x00 
                          .rdata:00403954 2e                               0x2e '.'
                          .rdata:00403955 43                               0x43 'C'
                          .rdata:00403956 52                               0x52 'R'
                          .rdata:00403957 54                               0x54 'T'
                          .rdata:00403958 24                               0x24 '$'
                          .rdata:00403959 58                               0x58 'X'
                          .rdata:0040395a 49                               0x49 'I'
                          .rdata:0040395b 41                               0x41 'A'
                          .rdata:0040395c 41                               0x41 'A'
                          .rdata:0040395d 00                               0x00 
                          .rdata:0040395e 00                               0x00 
                          .rdata:0040395f 00                               0x00 
                          .rdata:00403960 54                               0x54 'T'
                          .rdata:00403961 31                               0x31 '1'
                          .rdata:00403962 00                               0x00 
                          .rdata:00403963 00                               0x00 
                          .rdata:00403964 04                               0x04 
                          .rdata:00403965 00                               0x00 
                          .rdata:00403966 00                               0x00 
                          .rdata:00403967 00                               0x00 
                          .rdata:00403968 2e                               0x2e '.'
                          .rdata:00403969 43                               0x43 'C'
                          .rdata:0040396a 52                               0x52 'R'
                          .rdata:0040396b 54                               0x54 'T'
                          .rdata:0040396c 24                               0x24 '$'
                          .rdata:0040396d 58                               0x58 'X'
                          .rdata:0040396e 49                               0x49 'I'
                          .rdata:0040396f 41                               0x41 'A'
                          .rdata:00403970 43                               0x43 'C'
                          .rdata:00403971 00                               0x00 
                          .rdata:00403972 00                               0x00 
                          .rdata:00403973 00                               0x00 
                          .rdata:00403974 58                               0x58 'X'
                          .rdata:00403975 31                               0x31 '1'
                          .rdata:00403976 00                               0x00 
                          .rdata:00403977 00                               0x00 
                          .rdata:00403978 04                               0x04 
                          .rdata:00403979 00                               0x00 
                          .rdata:0040397a 00                               0x00 
                          .rdata:0040397b 00                               0x00 
                          .rdata:0040397c 2e                               0x2e '.'
                          .rdata:0040397d 43                               0x43 'C'
                          .rdata:0040397e 52                               0x52 'R'
                          .rdata:0040397f 54                               0x54 'T'
                          .rdata:00403980 24                               0x24 '$'
                          .rdata:00403981 58                               0x58 'X'
                          .rdata:00403982 49                               0x49 'I'
                          .rdata:00403983 5a                               0x5a 'Z'
                          .rdata:00403984 00                               0x00 
                          .rdata:00403985 00                               0x00 
                          .rdata:00403986 00                               0x00 
                          .rdata:00403987 00                               0x00 
                          .rdata:00403988 5c                               0x5c '\'
                          .rdata:00403989 31                               0x31 '1'
                          .rdata:0040398a 00                               0x00 
                          .rdata:0040398b 00                               0x00 
                          .rdata:0040398c 04                               0x04 
                          .rdata:0040398d 00                               0x00 
                          .rdata:0040398e 00                               0x00 
                          .rdata:0040398f 00                               0x00 
                          .rdata:00403990 2e                               0x2e '.'
                          .rdata:00403991 43                               0x43 'C'
                          .rdata:00403992 52                               0x52 'R'
                          .rdata:00403993 54                               0x54 'T'
                          .rdata:00403994 24                               0x24 '$'
                          .rdata:00403995 58                               0x58 'X'
                          .rdata:00403996 50                               0x50 'P'
                          .rdata:00403997 41                               0x41 'A'
                          .rdata:00403998 00                               0x00 
                          .rdata:00403999 00                               0x00 
                          .rdata:0040399a 00                               0x00 
                          .rdata:0040399b 00                               0x00 
                          .rdata:0040399c 60                               0x60 '`'
                          .rdata:0040399d 31                               0x31 '1'
                          .rdata:0040399e 00                               0x00 
                          .rdata:0040399f 00                               0x00 
                          .rdata:004039a0 04                               0x04 
                          .rdata:004039a1 00                               0x00 
                          .rdata:004039a2 00                               0x00 
                          .rdata:004039a3 00                               0x00 
                          .rdata:004039a4 2e                               0x2e '.'
                          .rdata:004039a5 43                               0x43 'C'
                          .rdata:004039a6 52                               0x52 'R'
                          .rdata:004039a7 54                               0x54 'T'
                          .rdata:004039a8 24                               0x24 '$'
                          .rdata:004039a9 58                               0x58 'X'
                          .rdata:004039aa 50                               0x50 'P'
                          .rdata:004039ab 5a                               0x5a 'Z'
                          .rdata:004039ac 00                               0x00 
                          .rdata:004039ad 00                               0x00 
                          .rdata:004039ae 00                               0x00 
                          .rdata:004039af 00                               0x00 
                          .rdata:004039b0 64                               0x64 'd'
                          .rdata:004039b1 31                               0x31 '1'
                          .rdata:004039b2 00                               0x00 
                          .rdata:004039b3 00                               0x00 
                          .rdata:004039b4 04                               0x04 
                          .rdata:004039b5 00                               0x00 
                          .rdata:004039b6 00                               0x00 
                          .rdata:004039b7 00                               0x00 
                          .rdata:004039b8 2e                               0x2e '.'
                          .rdata:004039b9 43                               0x43 'C'
                          .rdata:004039ba 52                               0x52 'R'
                          .rdata:004039bb 54                               0x54 'T'
                          .rdata:004039bc 24                               0x24 '$'
                          .rdata:004039bd 58                               0x58 'X'
                          .rdata:004039be 54                               0x54 'T'
                          .rdata:004039bf 41                               0x41 'A'
                          .rdata:004039c0 00                               0x00 
                          .rdata:004039c1 00                               0x00 
                          .rdata:004039c2 00                               0x00 
                          .rdata:004039c3 00                               0x00 
                          .rdata:004039c4 68                               0x68 'h'
                          .rdata:004039c5 31                               0x31 '1'
                          .rdata:004039c6 00                               0x00 
                          .rdata:004039c7 00                               0x00 
                          .rdata:004039c8 04                               0x04 
                          .rdata:004039c9 00                               0x00 
                          .rdata:004039ca 00                               0x00 
                          .rdata:004039cb 00                               0x00 
                          .rdata:004039cc 2e                               0x2e '.'
                          .rdata:004039cd 43                               0x43 'C'
                          .rdata:004039ce 52                               0x52 'R'
                          .rdata:004039cf 54                               0x54 'T'
                          .rdata:004039d0 24                               0x24 '$'
                          .rdata:004039d1 58                               0x58 'X'
                          .rdata:004039d2 54                               0x54 'T'
                          .rdata:004039d3 5a                               0x5a 'Z'
                          .rdata:004039d4 00                               0x00 
                          .rdata:004039d5 00                               0x00 
                          .rdata:004039d6 00                               0x00 
                          .rdata:004039d7 00                               0x00 
                          .rdata:004039d8 70                               0x70 'p'
                          .rdata:004039d9 31                               0x31 '1'
                          .rdata:004039da 00                               0x00 
                          .rdata:004039db 00                               0x00 
                          .rdata:004039dc bc                               0xbc 
                          .rdata:004039dd 06                               0x06 
                          .rdata:004039de 00                               0x00 
                          .rdata:004039df 00                               0x00 
                          .rdata:004039e0 2e                               0x2e '.'
                          .rdata:004039e1 72                               0x72 'r'
                          .rdata:004039e2 64                               0x64 'd'
                          .rdata:004039e3 61                               0x61 'a'
                          .rdata:004039e4 74                               0x74 't'
                          .rdata:004039e5 61                               0x61 'a'
                          .rdata:004039e6 00                               0x00 
                          .rdata:004039e7 00                               0x00 
                          .rdata:004039e8 30                               0x30 '0'
                          .rdata:004039e9 38                               0x38 '8'
                          .rdata:004039ea 00                               0x00 
                          .rdata:004039eb 00                               0x00 
                          .rdata:004039ec 04                               0x04 
                          .rdata:004039ed 00                               0x00 
                          .rdata:004039ee 00                               0x00 
                          .rdata:004039ef 00                               0x00 
                          .rdata:004039f0 2e                               0x2e '.'
                          .rdata:004039f1 72                               0x72 'r'
                          .rdata:004039f2 64                               0x64 'd'
                          .rdata:004039f3 61                               0x61 'a'
                          .rdata:004039f4 74                               0x74 't'
                          .rdata:004039f5 61                               0x61 'a'
                          .rdata:004039f6 24                               0x24 '$'
                          .rdata:004039f7 73                               0x73 's'
                          .rdata:004039f8 78                               0x78 'x'
                          .rdata:004039f9 64                               0x64 'd'
                          .rdata:004039fa 61                               0x61 'a'
                          .rdata:004039fb 74                               0x74 't'
                          .rdata:004039fc 61                               0x61 'a'
                          .rdata:004039fd 00                               0x00 
                          .rdata:004039fe 00                               0x00 
                          .rdata:004039ff 00                               0x00 
                          .rdata:00403a00 34                               0x34 '4'
                          .rdata:00403a01 38                               0x38 '8'
                          .rdata:00403a02 00                               0x00 
                          .rdata:00403a03 00                               0x00 
                          .rdata:00403a04 f4                               0xf4 
                          .rdata:00403a05 02                               0x02 
                          .rdata:00403a06 00                               0x00 
                          .rdata:00403a07 00                               0x00 
                          .rdata:00403a08 2e                               0x2e '.'
                          .rdata:00403a09 72                               0x72 'r'
                          .rdata:00403a0a 64                               0x64 'd'
                          .rdata:00403a0b 61                               0x61 'a'
                          .rdata:00403a0c 74                               0x74 't'
                          .rdata:00403a0d 61                               0x61 'a'
                          .rdata:00403a0e 24                               0x24 '$'
                          .rdata:00403a0f 7a                               0x7a 'z'
                          .rdata:00403a10 7a                               0x7a 'z'
                          .rdata:00403a11 7a                               0x7a 'z'
                          .rdata:00403a12 64                               0x64 'd'
                          .rdata:00403a13 62                               0x62 'b'
                          .rdata:00403a14 67                               0x67 'g'
                          .rdata:00403a15 00                               0x00 
                          .rdata:00403a16 00                               0x00 
                          .rdata:00403a17 00                               0x00 
                          .rdata:00403a18 28                               0x28 '('
                          .rdata:00403a19 3b                               0x3b ';'
                          .rdata:00403a1a 00                               0x00 
                          .rdata:00403a1b 00                               0x00 
                          .rdata:00403a1c 04                               0x04 
                          .rdata:00403a1d 00                               0x00 
                          .rdata:00403a1e 00                               0x00 
                          .rdata:00403a1f 00                               0x00 
                          .rdata:00403a20 2e                               0x2e '.'
                          .rdata:00403a21 72                               0x72 'r'
                          .rdata:00403a22 74                               0x74 't'
                          .rdata:00403a23 63                               0x63 'c'
                          .rdata:00403a24 24                               0x24 '$'
                          .rdata:00403a25 49                               0x49 'I'
                          .rdata:00403a26 41                               0x41 'A'
                          .rdata:00403a27 41                               0x41 'A'
                          .rdata:00403a28 00                               0x00 
                          .rdata:00403a29 00                               0x00 
                          .rdata:00403a2a 00                               0x00 
                          .rdata:00403a2b 00                               0x00 
                          .rdata:00403a2c 2c                               0x2c ','
                          .rdata:00403a2d 3b                               0x3b ';'
                          .rdata:00403a2e 00                               0x00 
                          .rdata:00403a2f 00                               0x00 
                          .rdata:00403a30 04                               0x04 
                          .rdata:00403a31 00                               0x00 
                          .rdata:00403a32 00                               0x00 
                          .rdata:00403a33 00                               0x00 
                          .rdata:00403a34 2e                               0x2e '.'
                          .rdata:00403a35 72                               0x72 'r'
                          .rdata:00403a36 74                               0x74 't'
                          .rdata:00403a37 63                               0x63 'c'
                          .rdata:00403a38 24                               0x24 '$'
                          .rdata:00403a39 49                               0x49 'I'
                          .rdata:00403a3a 5a                               0x5a 'Z'
                          .rdata:00403a3b 5a                               0x5a 'Z'
                          .rdata:00403a3c 00                               0x00 
                          .rdata:00403a3d 00                               0x00 
                          .rdata:00403a3e 00                               0x00 
                          .rdata:00403a3f 00                               0x00 
                          .rdata:00403a40 30                               0x30 '0'
                          .rdata:00403a41 3b                               0x3b ';'
                          .rdata:00403a42 00                               0x00 
                          .rdata:00403a43 00                               0x00 
                          .rdata:00403a44 04                               0x04 
                          .rdata:00403a45 00                               0x00 
                          .rdata:00403a46 00                               0x00 
                          .rdata:00403a47 00                               0x00 
                          .rdata:00403a48 2e                               0x2e '.'
                          .rdata:00403a49 72                               0x72 'r'
                          .rdata:00403a4a 74                               0x74 't'
                          .rdata:00403a4b 63                               0x63 'c'
                          .rdata:00403a4c 24                               0x24 '$'
                          .rdata:00403a4d 54                               0x54 'T'
                          .rdata:00403a4e 41                               0x41 'A'
                          .rdata:00403a4f 41                               0x41 'A'
                          .rdata:00403a50 00                               0x00 
                          .rdata:00403a51 00                               0x00 
                          .rdata:00403a52 00                               0x00 
                          .rdata:00403a53 00                               0x00 
                          .rdata:00403a54 34                               0x34 '4'
                          .rdata:00403a55 3b                               0x3b ';'
                          .rdata:00403a56 00                               0x00 
                          .rdata:00403a57 00                               0x00 
                          .rdata:00403a58 04                               0x04 
                          .rdata:00403a59 00                               0x00 
                          .rdata:00403a5a 00                               0x00 
                          .rdata:00403a5b 00                               0x00 
                          .rdata:00403a5c 2e                               0x2e '.'
                          .rdata:00403a5d 72                               0x72 'r'
                          .rdata:00403a5e 74                               0x74 't'
                          .rdata:00403a5f 63                               0x63 'c'
                          .rdata:00403a60 24                               0x24 '$'
                          .rdata:00403a61 54                               0x54 'T'
                          .rdata:00403a62 5a                               0x5a 'Z'
                          .rdata:00403a63 5a                               0x5a 'Z'
                          .rdata:00403a64 00                               0x00 
                          .rdata:00403a65 00                               0x00 
                          .rdata:00403a66 00                               0x00 
                          .rdata:00403a67 00                               0x00 
                          .rdata:00403a68 38                               0x38 '8'
                          .rdata:00403a69 3b                               0x3b ';'
                          .rdata:00403a6a 00                               0x00 
                          .rdata:00403a6b 00                               0x00 
                          .rdata:00403a6c 3c                               0x3c '<'
                          .rdata:00403a6d 00                               0x00 
                          .rdata:00403a6e 00                               0x00 
                          .rdata:00403a6f 00                               0x00 
                          .rdata:00403a70 2e                               0x2e '.'
                          .rdata:00403a71 78                               0x78 'x'
                          .rdata:00403a72 64                               0x64 'd'
                          .rdata:00403a73 61                               0x61 'a'
                          .rdata:00403a74 74                               0x74 't'
                          .rdata:00403a75 61                               0x61 'a'
                          .rdata:00403a76 24                               0x24 '$'
                          .rdata:00403a77 78                               0x78 'x'
                          .rdata:00403a78 00                               0x00 
                          .rdata:00403a79 00                               0x00 
                          .rdata:00403a7a 00                               0x00 
                          .rdata:00403a7b 00                               0x00 
                          .rdata:00403a7c 74                               0x74 't'
                          .rdata:00403a7d 3b                               0x3b ';'
                          .rdata:00403a7e 00                               0x00 
                          .rdata:00403a7f 00                               0x00 
                          .rdata:00403a80 c8                               0xc8 
                          .rdata:00403a81 00                               0x00 
                          .rdata:00403a82 00                               0x00 
                          .rdata:00403a83 00                               0x00 
                          .rdata:00403a84 2e                               0x2e '.'
                          .rdata:00403a85 69                               0x69 'i'
                          .rdata:00403a86 64                               0x64 'd'
                          .rdata:00403a87 61                               0x61 'a'
                          .rdata:00403a88 74                               0x74 't'
                          .rdata:00403a89 61                               0x61 'a'
                          .rdata:00403a8a 24                               0x24 '$'
                          .rdata:00403a8b 32                               0x32 '2'
                          .rdata:00403a8c 00                               0x00 
                          .rdata:00403a8d 00                               0x00 
                          .rdata:00403a8e 00                               0x00 
                          .rdata:00403a8f 00                               0x00 
                          .rdata:00403a90 3c                               0x3c '<'
                          .rdata:00403a91 3c                               0x3c '<'
                          .rdata:00403a92 00                               0x00 
                          .rdata:00403a93 00                               0x00 
                          .rdata:00403a94 14                               0x14 
                          .rdata:00403a95 00                               0x00 
                          .rdata:00403a96 00                               0x00 
                          .rdata:00403a97 00                               0x00 
                          .rdata:00403a98 2e                               0x2e '.'
                          .rdata:00403a99 69                               0x69 'i'
                          .rdata:00403a9a 64                               0x64 'd'
                          .rdata:00403a9b 61                               0x61 'a'
                          .rdata:00403a9c 74                               0x74 't'
                          .rdata:00403a9d 61                               0x61 'a'
                          .rdata:00403a9e 24                               0x24 '$'
                          .rdata:00403a9f 33                               0x33 '3'
                          .rdata:00403aa0 00                               0x00 
                          .rdata:00403aa1 00                               0x00 
                          .rdata:00403aa2 00                               0x00 
                          .rdata:00403aa3 00                               0x00 
                          .rdata:00403aa4 50                               0x50 'P'
                          .rdata:00403aa5 3c                               0x3c '<'
                          .rdata:00403aa6 00                               0x00 
                          .rdata:00403aa7 00                               0x00 
                          .rdata:00403aa8 3c                               0x3c '<'
                          .rdata:00403aa9 01                               0x01 
                          .rdata:00403aaa 00                               0x00 
                          .rdata:00403aab 00                               0x00 
                          .rdata:00403aac 2e                               0x2e '.'
                          .rdata:00403aad 69                               0x69 'i'
                          .rdata:00403aae 64                               0x64 'd'
                          .rdata:00403aaf 61                               0x61 'a'
                          .rdata:00403ab0 74                               0x74 't'
                          .rdata:00403ab1 61                               0x61 'a'
                          .rdata:00403ab2 24                               0x24 '$'
                          .rdata:00403ab3 34                               0x34 '4'
                          .rdata:00403ab4 00                               0x00 
                          .rdata:00403ab5 00                               0x00 
                          .rdata:00403ab6 00                               0x00 
                          .rdata:00403ab7 00                               0x00 
                          .rdata:00403ab8 8c                               0x8c 
                          .rdata:00403ab9 3d                               0x3d '='
                          .rdata:00403aba 00                               0x00 
                          .rdata:00403abb 00                               0x00 
                          .rdata:00403abc 08                               0x08 
                          .rdata:00403abd 06                               0x06 
                          .rdata:00403abe 00                               0x00 
                          .rdata:00403abf 00                               0x00 
                          .rdata:00403ac0 2e                               0x2e '.'
                          .rdata:00403ac1 69                               0x69 'i'
                          .rdata:00403ac2 64                               0x64 'd'
                          .rdata:00403ac3 61                               0x61 'a'
                          .rdata:00403ac4 74                               0x74 't'
                          .rdata:00403ac5 61                               0x61 'a'
                          .rdata:00403ac6 24                               0x24 '$'
                          .rdata:00403ac7 36                               0x36 '6'
                          .rdata:00403ac8 00                               0x00 
                          .rdata:00403ac9 00                               0x00 
                          .rdata:00403aca 00                               0x00 
                          .rdata:00403acb 00                               0x00 
                          .rdata:00403acc 00                               0x00 
                          .rdata:00403acd 50                               0x50 'P'
                          .rdata:00403ace 00                               0x00 
                          .rdata:00403acf 00                               0x00 
                          .rdata:00403ad0 34                               0x34 '4'
                          .rdata:00403ad1 00                               0x00 
                          .rdata:00403ad2 00                               0x00 
                          .rdata:00403ad3 00                               0x00 
                          .rdata:00403ad4 2e                               0x2e '.'
                          .rdata:00403ad5 64                               0x64 'd'
                          .rdata:00403ad6 61                               0x61 'a'
                          .rdata:00403ad7 74                               0x74 't'
                          .rdata:00403ad8 61                               0x61 'a'
                          .rdata:00403ad9 00                               0x00 
                          .rdata:00403ada 00                               0x00 
                          .rdata:00403adb 00                               0x00 
                          .rdata:00403adc 38                               0x38 '8'
                          .rdata:00403add 50                               0x50 'P'
                          .rdata:00403ade 00                               0x00 
                          .rdata:00403adf 00                               0x00 
                          .rdata:00403ae0 00                               0x00 
                          .rdata:00403ae1 08                               0x08 
                          .rdata:00403ae2 00                               0x00 
                          .rdata:00403ae3 00                               0x00 
                          .rdata:00403ae4 2e                               0x2e '.'
                          .rdata:00403ae5 62                               0x62 'b'
                          .rdata:00403ae6 73                               0x73 's'
                          .rdata:00403ae7 73                               0x73 's'
                          .rdata:00403ae8 00                               0x00 
                          .rdata:00403ae9 00                               0x00 
                          .rdata:00403aea 00                               0x00 
                          .rdata:00403aeb 00                               0x00 
                          .rdata:00403aec 00                               0x00 
                          .rdata:00403aed 60                               0x60 '`'
                          .rdata:00403aee 00                               0x00 
                          .rdata:00403aef 00                               0x00 
                          .rdata:00403af0 20                               0x20 ' '
                          .rdata:00403af1 00                               0x00 
                          .rdata:00403af2 00                               0x00 
                          .rdata:00403af3 00                               0x00 
                          .rdata:00403af4 2e                               0x2e '.'
                          .rdata:00403af5 67                               0x67 'g'
                          .rdata:00403af6 66                               0x66 'f'
                          .rdata:00403af7 69                               0x69 'i'
                          .rdata:00403af8 64                               0x64 'd'
                          .rdata:00403af9 73                               0x73 's'
                          .rdata:00403afa 24                               0x24 '$'
                          .rdata:00403afb 79                               0x79 'y'
                          .rdata:00403afc 00                               0x00 
                          .rdata:00403afd 00                               0x00 
                          .rdata:00403afe 00                               0x00 
                          .rdata:00403aff 00                               0x00 
                          .rdata:00403b00 00                               0x00 
                          .rdata:00403b01 70                               0x70 'p'
                          .rdata:00403b02 00                               0x00 
                          .rdata:00403b03 00                               0x00 
                          .rdata:00403b04 58                               0x58 'X'
                          .rdata:00403b05 00                               0x00 
                          .rdata:00403b06 00                               0x00 
                          .rdata:00403b07 00                               0x00 
                          .rdata:00403b08 2e                               0x2e '.'
                          .rdata:00403b09 72                               0x72 'r'
                          .rdata:00403b0a 73                               0x73 's'
                          .rdata:00403b0b 72                               0x72 'r'
                          .rdata:00403b0c 63                               0x63 'c'
                          .rdata:00403b0d 24                               0x24 '$'
                          .rdata:00403b0e 30                               0x30 '0'
                          .rdata:00403b0f 31                               0x31 '1'
                          .rdata:00403b10 00                               0x00 
                          .rdata:00403b11 00                               0x00 
                          .rdata:00403b12 00                               0x00 
                          .rdata:00403b13 00                               0x00 
                          .rdata:00403b14 60                               0x60 '`'
                          .rdata:00403b15 70                               0x70 'p'
                          .rdata:00403b16 00                               0x00 
                          .rdata:00403b17 00                               0x00 
                          .rdata:00403b18 80                               0x80 
                          .rdata:00403b19 01                               0x01 
                          .rdata:00403b1a 00                               0x00 
                          .rdata:00403b1b 00                               0x00 
                          .rdata:00403b1c 2e                               0x2e '.'
                          .rdata:00403b1d 72                               0x72 'r'
                          .rdata:00403b1e 73                               0x73 's'
                          .rdata:00403b1f 72                               0x72 'r'
                          .rdata:00403b20 63                               0x63 'c'
                          .rdata:00403b21 24                               0x24 '$'
                          .rdata:00403b22 30                               0x30 '0'
                          .rdata:00403b23 32                               0x32 '2'
                          .rdata:00403b24 00                               0x00 
                          .rdata:00403b25 00                               0x00 
                          .rdata:00403b26 00                               0x00 
                          .rdata:00403b27 00                               0x00 
                          .rdata:00403b28 00                               0x00 
                          .rdata:00403b29 00                               0x00 
                          .rdata:00403b2a 00                               0x00 
                          .rdata:00403b2b 00                               0x00 
                          .rdata:00403b2c 00                               0x00 
                          .rdata:00403b2d 00                               0x00 
                          .rdata:00403b2e 00                               0x00 
                          .rdata:00403b2f 00                               0x00 
                          .rdata:00403b30 00                               0x00 
                          .rdata:00403b31 00                               0x00 
                          .rdata:00403b32 00                               0x00 
                          .rdata:00403b33 00                               0x00 
                          .rdata:00403b34 00                               0x00 
                          .rdata:00403b35 00                               0x00 
                          .rdata:00403b36 00                               0x00 
                          .rdata:00403b37 00                               0x00 
                          .rdata:00403b38 fe                               0xfe 
                          .rdata:00403b39 ff                               0xff 
                          .rdata:00403b3a ff                               0xff 
                          .rdata:00403b3b ff                               0xff 
                          .rdata:00403b3c 00                               0x00 
                          .rdata:00403b3d 00                               0x00 
                          .rdata:00403b3e 00                               0x00 
                          .rdata:00403b3f 00                               0x00 
                          .rdata:00403b40 cc                               0xcc 
                          .rdata:00403b41 ff                               0xff 
                          .rdata:00403b42 ff                               0xff 
                          .rdata:00403b43 ff                               0xff 
                          .rdata:00403b44 00                               0x00 
                          .rdata:00403b45 00                               0x00 
                          .rdata:00403b46 00                               0x00 
                          .rdata:00403b47 00                               0x00 
                          .rdata:00403b48 fe                               0xfe 
                          .rdata:00403b49 ff                               0xff 
                          .rdata:00403b4a ff                               0xff 
                          .rdata:00403b4b ff                               0xff 
                          .rdata:00403b4c c9                               0xc9 
                          .rdata:00403b4d 21                               0x21 '!'
                          .rdata:00403b4e 40                               0x40 '@'
                          .rdata:00403b4f 00                               0x00 
                          .rdata:00403b50 dd                               0xdd 
                          .rdata:00403b51 21                               0x21 '!'
                          .rdata:00403b52 40                               0x40 '@'
                          .rdata:00403b53 00                               0x00 
                          .rdata:00403b54 00                               0x00 
                          .rdata:00403b55 00                               0x00 
                          .rdata:00403b56 00                               0x00 
                          .rdata:00403b57 00                               0x00 
                          .rdata:00403b58 fe                               0xfe 
                          .rdata:00403b59 ff                               0xff 
                          .rdata:00403b5a ff                               0xff 
                          .rdata:00403b5b ff                               0xff 
                          .rdata:00403b5c 00                               0x00 
                          .rdata:00403b5d 00                               0x00 
                          .rdata:00403b5e 00                               0x00 
                          .rdata:00403b5f 00                               0x00 
                          .rdata:00403b60 d8                               0xd8 
                          .rdata:00403b61 ff                               0xff 
                          .rdata:00403b62 ff                               0xff 
                          .rdata:00403b63 ff                               0xff 
                          .rdata:00403b64 00                               0x00 
                          .rdata:00403b65 00                               0x00 
                          .rdata:00403b66 00                               0x00 
                          .rdata:00403b67 00                               0x00 
                          .rdata:00403b68 fe                               0xfe 
                          .rdata:00403b69 ff                               0xff 
                          .rdata:00403b6a ff                               0xff 
                          .rdata:00403b6b ff                               0xff 
                          .rdata:00403b6c ea                               0xea 
                          .rdata:00403b6d 24                               0x24 '$'
                          .rdata:00403b6e 40                               0x40 '@'
                          .rdata:00403b6f 00                               0x00 
                          .rdata:00403b70 fd                               0xfd 
                          .rdata:00403b71 24                               0x24 '$'
                          .rdata:00403b72 40                               0x40 '@'
                          .rdata:00403b73 00                               0x00 
                          .rdata:00403b74 58                               0x58 'X'
                          .rdata:00403b75 3c                               0x3c '<'
                          .rdata:00403b76 00                               0x00 
                          .rdata:00403b77 00                               0x00 
                          .rdata:00403b78 00                               0x00 
                          .rdata:00403b79 00                               0x00 
                          .rdata:00403b7a 00                               0x00 
                          .rdata:00403b7b 00                               0x00 
                          .rdata:00403b7c 00                               0x00 
                          .rdata:00403b7d 00                               0x00 
                          .rdata:00403b7e 00                               0x00 
                          .rdata:00403b7f 00                               0x00 
                          .rdata:00403b80 ca                               0xca 
                          .rdata:00403b81 3d                               0x3d '='
                          .rdata:00403b82 00                               0x00 
                          .rdata:00403b83 00                               0x00 
                          .rdata:00403b84 08                               0x08 
                          .rdata:00403b85 30                               0x30 '0'
                          .rdata:00403b86 00                               0x00 
                          .rdata:00403b87 00                               0x00 
                          .rdata:00403b88 98                               0x98 
                          .rdata:00403b89 3c                               0x3c '<'
                          .rdata:00403b8a 00                               0x00 
                          .rdata:00403b8b 00                               0x00 
                          .rdata:00403b8c 00                               0x00 
                          .rdata:00403b8d 00                               0x00 
                          .rdata:00403b8e 00                               0x00 
                          .rdata:00403b8f 00                               0x00 
                          .rdata:00403b90 00                               0x00 
                          .rdata:00403b91 00                               0x00 
                          .rdata:00403b92 00                               0x00 
                          .rdata:00403b93 00                               0x00 
                          .rdata:00403b94 4a                               0x4a 'J'
                          .rdata:00403b95 3f                               0x3f '?'
                          .rdata:00403b96 00                               0x00 
                          .rdata:00403b97 00                               0x00 
                          .rdata:00403b98 48                               0x48 'H'
                          .rdata:00403b99 30                               0x30 '0'
                          .rdata:00403b9a 00                               0x00 
                          .rdata:00403b9b 00                               0x00 
                          .rdata:00403b9c 50                               0x50 'P'
                          .rdata:00403b9d 3c                               0x3c '<'
                          .rdata:00403b9e 00                               0x00 
                          .rdata:00403b9f 00                               0x00 
                          .rdata:00403ba0 00                               0x00 
                          .rdata:00403ba1 00                               0x00 
                          .rdata:00403ba2 00                               0x00 
                          .rdata:00403ba3 00                               0x00 
                          .rdata:00403ba4 00                               0x00 
                          .rdata:00403ba5 00                               0x00 
                          .rdata:00403ba6 00                               0x00 
                          .rdata:00403ba7 00                               0x00 
                          .rdata:00403ba8 68                               0x68 'h'
                          .rdata:00403ba9 3f                               0x3f '?'
                          .rdata:00403baa 00                               0x00 
                          .rdata:00403bab 00                               0x00 
                          .rdata:00403bac 00                               0x00 
                          .rdata:00403bad 30                               0x30 '0'
                          .rdata:00403bae 00                               0x00 
                          .rdata:00403baf 00                               0x00 
                          .rdata:00403bb0 f8                               0xf8 
                          .rdata:00403bb1 3c                               0x3c '<'
                          .rdata:00403bb2 00                               0x00 
                          .rdata:00403bb3 00                               0x00 
                          .rdata:00403bb4 00                               0x00 
                          .rdata:00403bb5 00                               0x00 
                          .rdata:00403bb6 00                               0x00 
                          .rdata:00403bb7 00                               0x00 
                          .rdata:00403bb8 00                               0x00 
                          .rdata:00403bb9 00                               0x00 
                          .rdata:00403bba 00                               0x00 
                          .rdata:00403bbb 00                               0x00 
                          .rdata:00403bbc da                               0xda 
                          .rdata:00403bbd 3f                               0x3f '?'
                          .rdata:00403bbe 00                               0x00 
                          .rdata:00403bbf 00                               0x00 
                          .rdata:00403bc0 a8                               0xa8 
                          .rdata:00403bc1 30                               0x30 '0'
                          .rdata:00403bc2 00                               0x00 
                          .rdata:00403bc3 00                               0x00 
                          .rdata:00403bc4 0c                               0x0c ''
                          .rdata:00403bc5 3d                               0x3d '='
                          .rdata:00403bc6 00                               0x00 
                          .rdata:00403bc7 00                               0x00 
                          .rdata:00403bc8 00                               0x00 
                          .rdata:00403bc9 00                               0x00 
                          .rdata:00403bca 00                               0x00 
                          .rdata:00403bcb 00                               0x00 
                          .rdata:00403bcc 00                               0x00 
                          .rdata:00403bcd 00                               0x00 
                          .rdata:00403bce 00                               0x00 
                          .rdata:00403bcf 00                               0x00 
                          .rdata:00403bd0 ae                               0xae 
                          .rdata:00403bd1 41                               0x41 'A'
                          .rdata:00403bd2 00                               0x00 
                          .rdata:00403bd3 00                               0x00 
                          .rdata:00403bd4 bc                               0xbc 
                          .rdata:00403bd5 30                               0x30 '0'
                          .rdata:00403bd6 00                               0x00 
                          .rdata:00403bd7 00                               0x00 
                          .rdata:00403bd8 38                               0x38 '8'
                          .rdata:00403bd9 3d                               0x3d '='
                          .rdata:00403bda 00                               0x00 
                          .rdata:00403bdb 00                               0x00 
                          .rdata:00403bdc 00                               0x00 
                          .rdata:00403bdd 00                               0x00 
                          .rdata:00403bde 00                               0x00 
                          .rdata:00403bdf 00                               0x00 
                          .rdata:00403be0 00                               0x00 
                          .rdata:00403be1 00                               0x00 
                          .rdata:00403be2 00                               0x00 
                          .rdata:00403be3 00                               0x00 
                          .rdata:00403be4 d0                               0xd0 
                          .rdata:00403be5 41                               0x41 'A'
                          .rdata:00403be6 00                               0x00 
                          .rdata:00403be7 00                               0x00 
                          .rdata:00403be8 e8                               0xe8 
                          .rdata:00403be9 30                               0x30 '0'
                          .rdata:00403bea 00                               0x00 
                          .rdata:00403beb 00                               0x00 
                          .rdata:00403bec 2c                               0x2c ','
                          .rdata:00403bed 3d                               0x3d '='
                          .rdata:00403bee 00                               0x00 
                          .rdata:00403bef 00                               0x00 
                          .rdata:00403bf0 00                               0x00 
                          .rdata:00403bf1 00                               0x00 
                          .rdata:00403bf2 00                               0x00 
                          .rdata:00403bf3 00                               0x00 
                          .rdata:00403bf4 00                               0x00 
                          .rdata:00403bf5 00                               0x00 
                          .rdata:00403bf6 00                               0x00 
                          .rdata:00403bf7 00                               0x00 
                          .rdata:00403bf8 f2                               0xf2 
                          .rdata:00403bf9 41                               0x41 'A'
                          .rdata:00403bfa 00                               0x00 
                          .rdata:00403bfb 00                               0x00 
                          .rdata:00403bfc dc                               0xdc 
                          .rdata:00403bfd 30                               0x30 '0'
                          .rdata:00403bfe 00                               0x00 
                          .rdata:00403bff 00                               0x00 
                          .rdata:00403c00 80                               0x80 
                          .rdata:00403c01 3d                               0x3d '='
                          .rdata:00403c02 00                               0x00 
                          .rdata:00403c03 00                               0x00 
                          .rdata:00403c04 00                               0x00 
                          .rdata:00403c05 00                               0x00 
                          .rdata:00403c06 00                               0x00 
                          .rdata:00403c07 00                               0x00 
                          .rdata:00403c08 00                               0x00 
                          .rdata:00403c09 00                               0x00 
                          .rdata:00403c0a 00                               0x00 
                          .rdata:00403c0b 00                               0x00 
                          .rdata:00403c0c 12                               0x12 
                          .rdata:00403c0d 42                               0x42 'B'
                          .rdata:00403c0e 00                               0x00 
                          .rdata:00403c0f 00                               0x00 
                          .rdata:00403c10 30                               0x30 '0'
                          .rdata:00403c11 31                               0x31 '1'
                          .rdata:00403c12 00                               0x00 
                          .rdata:00403c13 00                               0x00 
                          .rdata:00403c14 24                               0x24 '$'
                          .rdata:00403c15 3d                               0x3d '='
                          .rdata:00403c16 00                               0x00 
                          .rdata:00403c17 00                               0x00 
                          .rdata:00403c18 00                               0x00 
                          .rdata:00403c19 00                               0x00 
                          .rdata:00403c1a 00                               0x00 
                          .rdata:00403c1b 00                               0x00 
                          .rdata:00403c1c 00                               0x00 
                          .rdata:00403c1d 00                               0x00 
                          .rdata:00403c1e 00                               0x00 
                          .rdata:00403c1f 00                               0x00 
                          .rdata:00403c20 32                               0x32 '2'
                          .rdata:00403c21 42                               0x42 'B'
                          .rdata:00403c22 00                               0x00 
                          .rdata:00403c23 00                               0x00 
                          .rdata:00403c24 d4                               0xd4 
                          .rdata:00403c25 30                               0x30 '0'
                          .rdata:00403c26 00                               0x00 
                          .rdata:00403c27 00                               0x00 
                          .rdata:00403c28 1c                               0x1c 
                          .rdata:00403c29 3d                               0x3d '='
                          .rdata:00403c2a 00                               0x00 
                          .rdata:00403c2b 00                               0x00 
                          .rdata:00403c2c 00                               0x00 
                          .rdata:00403c2d 00                               0x00 
                          .rdata:00403c2e 00                               0x00 
                          .rdata:00403c2f 00                               0x00 
                          .rdata:00403c30 00                               0x00 
                          .rdata:00403c31 00                               0x00 
                          .rdata:00403c32 00                               0x00 
                          .rdata:00403c33 00                               0x00 
                          .rdata:00403c34 54                               0x54 'T'
                          .rdata:00403c35 42                               0x42 'B'
                          .rdata:00403c36 00                               0x00 
                          .rdata:00403c37 00                               0x00 
                          .rdata:00403c38 cc                               0xcc 
                          .rdata:00403c39 30                               0x30 '0'
                          .rdata:00403c3a 00                               0x00 
                          .rdata:00403c3b 00                               0x00 
                          .rdata:00403c3c 00                               0x00 
                          .rdata:00403c3d 00                               0x00 
                          .rdata:00403c3e 00                               0x00 
                          .rdata:00403c3f 00                               0x00 
                          .rdata:00403c40 00                               0x00 
                          .rdata:00403c41 00                               0x00 
                          .rdata:00403c42 00                               0x00 
                          .rdata:00403c43 00                               0x00 
                          .rdata:00403c44 00                               0x00 
                          .rdata:00403c45 00                               0x00 
                          .rdata:00403c46 00                               0x00 
                          .rdata:00403c47 00                               0x00 
                          .rdata:00403c48 00                               0x00 
                          .rdata:00403c49 00                               0x00 
                          .rdata:00403c4a 00                               0x00 
                          .rdata:00403c4b 00                               0x00 
                          .rdata:00403c4c 00                               0x00 
                          .rdata:00403c4d 00                               0x00 
                          .rdata:00403c4e 00                               0x00 
                          .rdata:00403c4f 00                               0x00 
                          .rdata:00403c50 56                               0x56 'V'
                          .rdata:00403c51 3f                               0x3f '?'
                          .rdata:00403c52 00                               0x00 
                          .rdata:00403c53 00                               0x00 
                          .rdata:00403c54 00                               0x00 
                          .rdata:00403c55 00                               0x00 
                          .rdata:00403c56 00                               0x00 
                          .rdata:00403c57 00                               0x00 
                          .rdata:00403c58 b0                               0xb0 
                          .rdata:00403c59 3d                               0x3d '='
                          .rdata:00403c5a 00                               0x00 
                          .rdata:00403c5b 00                               0x00 
                          .rdata:00403c5c 74                               0x74 't'
                          .rdata:00403c5d 42                               0x42 'B'
                          .rdata:00403c5e 00                               0x00 
                          .rdata:00403c5f 00                               0x00 
                          .rdata:00403c60 90                               0x90 
                          .rdata:00403c61 42                               0x42 'B'
                          .rdata:00403c62 00                               0x00 
                          .rdata:00403c63 00                               0x00 
                          .rdata:00403c64 ae                               0xae 
                          .rdata:00403c65 42                               0x42 'B'
                          .rdata:00403c66 00                               0x00 
                          .rdata:00403c67 00                               0x00 
                          .rdata:00403c68 c2                               0xc2 
                          .rdata:00403c69 42                               0x42 'B'
                          .rdata:00403c6a 00                               0x00 
                          .rdata:00403c6b 00                               0x00 
                          .rdata:00403c6c d6                               0xd6 
                          .rdata:00403c6d 42                               0x42 'B'
                          .rdata:00403c6e 00                               0x00 
                          .rdata:00403c6f 00                               0x00 
                          .rdata:00403c70 94                               0x94 
                          .rdata:00403c71 3d                               0x3d '='
                          .rdata:00403c72 00                               0x00 
                          .rdata:00403c73 00                               0x00 
                          .rdata:00403c74 08                               0x08 
                          .rdata:00403c75 43                               0x43 'C'
                          .rdata:00403c76 00                               0x00 
                          .rdata:00403c77 00                               0x00 
                          .rdata:00403c78 1e                               0x1e 
                          .rdata:00403c79 43                               0x43 'C'
                          .rdata:00403c7a 00                               0x00 
                          .rdata:00403c7b 00                               0x00 
                          .rdata:00403c7c 38                               0x38 '8'
                          .rdata:00403c7d 43                               0x43 'C'
                          .rdata:00403c7e 00                               0x00 
                          .rdata:00403c7f 00                               0x00 
                          .rdata:00403c80 4e                               0x4e 'N'
                          .rdata:00403c81 43                               0x43 'C'
                          .rdata:00403c82 00                               0x00 
                          .rdata:00403c83 00                               0x00 
                          .rdata:00403c84 62                               0x62 'b'
                          .rdata:00403c85 43                               0x43 'C'
                          .rdata:00403c86 00                               0x00 
                          .rdata:00403c87 00                               0x00 
                          .rdata:00403c88 74                               0x74 't'
                          .rdata:00403c89 43                               0x43 'C'
                          .rdata:00403c8a 00                               0x00 
                          .rdata:00403c8b 00                               0x00 
                          .rdata:00403c8c 8c                               0x8c 
                          .rdata:00403c8d 3d                               0x3d '='
                          .rdata:00403c8e 00                               0x00 
                          .rdata:00403c8f 00                               0x00 
                          .rdata:00403c90 f2                               0xf2 
                          .rdata:00403c91 42                               0x42 'B'
                          .rdata:00403c92 00                               0x00 
                          .rdata:00403c93 00                               0x00 
                          .rdata:00403c94 00                               0x00 
                          .rdata:00403c95 00                               0x00 
                          .rdata:00403c96 00                               0x00 
                          .rdata:00403c97 00                               0x00 
                          .rdata:00403c98 b6                               0xb6 
                          .rdata:00403c99 3e                               0x3e '>'
                          .rdata:00403c9a 00                               0x00 
                          .rdata:00403c9b 00                               0x00 
                          .rdata:00403c9c c8                               0xc8 
                          .rdata:00403c9d 3e                               0x3e '>'
                          .rdata:00403c9e 00                               0x00 
                          .rdata:00403c9f 00                               0x00 
                          .rdata:00403ca0 d6                               0xd6 
                          .rdata:00403ca1 3e                               0x3e '>'
                          .rdata:00403ca2 00                               0x00 
                          .rdata:00403ca3 00                               0x00 
                          .rdata:00403ca4 e6                               0xe6 
                          .rdata:00403ca5 3e                               0x3e '>'
                          .rdata:00403ca6 00                               0x00 
                          .rdata:00403ca7 00                               0x00 
                          .rdata:00403ca8 f8                               0xf8 
                          .rdata:00403ca9 3e                               0x3e '>'
                          .rdata:00403caa 00                               0x00 
                          .rdata:00403cab 00                               0x00 
                          .rdata:00403cac 0c                               0x0c ''
                          .rdata:00403cad 3f                               0x3f '?'
                          .rdata:00403cae 00                               0x00 
                          .rdata:00403caf 00                               0x00 
                          .rdata:00403cb0 1a                               0x1a 
                          .rdata:00403cb1 3f                               0x3f '?'
                          .rdata:00403cb2 00                               0x00 
                          .rdata:00403cb3 00                               0x00 
                          .rdata:00403cb4 28                               0x28 '('
                          .rdata:00403cb5 3f                               0x3f '?'
                          .rdata:00403cb6 00                               0x00 
                          .rdata:00403cb7 00                               0x00 
                          .rdata:00403cb8 36                               0x36 '6'
                          .rdata:00403cb9 3f                               0x3f '?'
                          .rdata:00403cba 00                               0x00 
                          .rdata:00403cbb 00                               0x00 
                          .rdata:00403cbc a4                               0xa4 
                          .rdata:00403cbd 3e                               0x3e '>'
                          .rdata:00403cbe 00                               0x00 
                          .rdata:00403cbf 00                               0x00 
                          .rdata:00403cc0 92                               0x92 
                          .rdata:00403cc1 3e                               0x3e '>'
                          .rdata:00403cc2 00                               0x00 
                          .rdata:00403cc3 00                               0x00 
                          .rdata:00403cc4 f2                               0xf2 
                          .rdata:00403cc5 3d                               0x3d '='
                          .rdata:00403cc6 00                               0x00 
                          .rdata:00403cc7 00                               0x00 
                          .rdata:00403cc8 04                               0x04 
                          .rdata:00403cc9 3e                               0x3e '>'
                          .rdata:00403cca 00                               0x00 
                          .rdata:00403ccb 00                               0x00 
                          .rdata:00403ccc 14                               0x14 
                          .rdata:00403ccd 3e                               0x3e '>'
                          .rdata:00403cce 00                               0x00 
                          .rdata:00403ccf 00                               0x00 
                          .rdata:00403cd0 26                               0x26 '&'
                          .rdata:00403cd1 3e                               0x3e '>'
                          .rdata:00403cd2 00                               0x00 
                          .rdata:00403cd3 00                               0x00 
                          .rdata:00403cd4 e4                               0xe4 
                          .rdata:00403cd5 3d                               0x3d '='
                          .rdata:00403cd6 00                               0x00 
                          .rdata:00403cd7 00                               0x00 
                          .rdata:00403cd8 36                               0x36 '6'
                          .rdata:00403cd9 3e                               0x3e '>'
                          .rdata:00403cda 00                               0x00 
                          .rdata:00403cdb 00                               0x00 
                          .rdata:00403cdc 42                               0x42 'B'
                          .rdata:00403cdd 3e                               0x3e '>'
                          .rdata:00403cde 00                               0x00 
                          .rdata:00403cdf 00                               0x00 
                          .rdata:00403ce0 50                               0x50 'P'
                          .rdata:00403ce1 3e                               0x3e '>'
                          .rdata:00403ce2 00                               0x00 
                          .rdata:00403ce3 00                               0x00 
                          .rdata:00403ce4 60                               0x60 '`'
                          .rdata:00403ce5 3e                               0x3e '>'
                          .rdata:00403ce6 00                               0x00 
                          .rdata:00403ce7 00                               0x00 
                          .rdata:00403ce8 86                               0x86 
                          .rdata:00403ce9 3e                               0x3e '>'
                          .rdata:00403cea 00                               0x00 
                          .rdata:00403ceb 00                               0x00 
                          .rdata:00403cec 72                               0x72 'r'
                          .rdata:00403ced 3e                               0x3e '>'
                          .rdata:00403cee 00                               0x00 
                          .rdata:00403cef 00                               0x00 
                          .rdata:00403cf0 d8                               0xd8 
                          .rdata:00403cf1 3d                               0x3d '='
                          .rdata:00403cf2 00                               0x00 
                          .rdata:00403cf3 00                               0x00 
                          .rdata:00403cf4 00                               0x00 
                          .rdata:00403cf5 00                               0x00 
                          .rdata:00403cf6 00                               0x00 
                          .rdata:00403cf7 00                               0x00 
                          .rdata:00403cf8 b6                               0xb6 
                          .rdata:00403cf9 3f                               0x3f '?'
                          .rdata:00403cfa 00                               0x00 
                          .rdata:00403cfb 00                               0x00 
                          .rdata:00403cfc 72                               0x72 'r'
                          .rdata:00403cfd 3f                               0x3f '?'
                          .rdata:00403cfe 00                               0x00 
                          .rdata:00403cff 00                               0x00 
                          .rdata:00403d00 94                               0x94 
                          .rdata:00403d01 3f                               0x3f '?'
                          .rdata:00403d02 00                               0x00 
                          .rdata:00403d03 00                               0x00 
                          .rdata:00403d04 c0                               0xc0 
                          .rdata:00403d05 3f                               0x3f '?'
                          .rdata:00403d06 00                               0x00 
                          .rdata:00403d07 00                               0x00 
                          .rdata:00403d08 00                               0x00 
                          .rdata:00403d09 00                               0x00 
                          .rdata:00403d0a 00                               0x00 
                          .rdata:00403d0b 00                               0x00 
                          .rdata:00403d0c f6                               0xf6 
                          .rdata:00403d0d 3f                               0x3f '?'
                          .rdata:00403d0e 00                               0x00 
                          .rdata:00403d0f 00                               0x00 
                          .rdata:00403d10 fe                               0xfe 
                          .rdata:00403d11 3f                               0x3f '?'
                          .rdata:00403d12 00                               0x00 
                          .rdata:00403d13 00                               0x00 
                          .rdata:00403d14 ec                               0xec 
                          .rdata:00403d15 3f                               0x3f '?'
                          .rdata:00403d16 00                               0x00 
                          .rdata:00403d17 00                               0x00 
                          .rdata:00403d18 00                               0x00 
                          .rdata:00403d19 00                               0x00 
                          .rdata:00403d1a 00                               0x00 
                          .rdata:00403d1b 00                               0x00 
                          .rdata:00403d1c 2c                               0x2c ','
                          .rdata:00403d1d 41                               0x41 'A'
                          .rdata:00403d1e 00                               0x00 
                          .rdata:00403d1f 00                               0x00 
                          .rdata:00403d20 00                               0x00 
                          .rdata:00403d21 00                               0x00 
                          .rdata:00403d22 00                               0x00 
                          .rdata:00403d23 00                               0x00 
                          .rdata:00403d24 16                               0x16 
                          .rdata:00403d25 41                               0x41 'A'
                          .rdata:00403d26 00                               0x00 
                          .rdata:00403d27 00                               0x00 
                          .rdata:00403d28 00                               0x00 
                          .rdata:00403d29 00                               0x00 
                          .rdata:00403d2a 00                               0x00 
                          .rdata:00403d2b 00                               0x00 
                          .rdata:00403d2c 28                               0x28 '('
                          .rdata:00403d2d 40                               0x40 '@'
                          .rdata:00403d2e 00                               0x00 
                          .rdata:00403d2f 00                               0x00 
                          .rdata:00403d30 88                               0x88 
                          .rdata:00403d31 43                               0x43 'C'
                          .rdata:00403d32 00                               0x00 
                          .rdata:00403d33 00                               0x00 
                          .rdata:00403d34 00                               0x00 
                          .rdata:00403d35 00                               0x00 
                          .rdata:00403d36 00                               0x00 
                          .rdata:00403d37 00                               0x00 
                          .rdata:00403d38 84                               0x84 
                          .rdata:00403d39 41                               0x41 'A'
                          .rdata:00403d3a 00                               0x00 
                          .rdata:00403d3b 00                               0x00 
                          .rdata:00403d3c 92                               0x92 
                          .rdata:00403d3d 41                               0x41 'A'
                          .rdata:00403d3e 00                               0x00 
                          .rdata:00403d3f 00                               0x00 
                          .rdata:00403d40 a2                               0xa2 
                          .rdata:00403d41 41                               0x41 'A'
                          .rdata:00403d42 00                               0x00 
                          .rdata:00403d43 00                               0x00 
                          .rdata:00403d44 4c                               0x4c 'L'
                          .rdata:00403d45 41                               0x41 'A'
                          .rdata:00403d46 00                               0x00 
                          .rdata:00403d47 00                               0x00 
                          .rdata:00403d48 06                               0x06 
                          .rdata:00403d49 40                               0x40 '@'
                          .rdata:00403d4a 00                               0x00 
                          .rdata:00403d4b 00                               0x00 
                          .rdata:00403d4c 18                               0x18 
                          .rdata:00403d4d 40                               0x40 '@'
                          .rdata:00403d4e 00                               0x00 
                          .rdata:00403d4f 00                               0x00 
                          .rdata:00403d50 e8                               0xe8 
                          .rdata:00403d51 40                               0x40 '@'
                          .rdata:00403d52 00                               0x00 
                          .rdata:00403d53 00                               0x00 
                          .rdata:00403d54 de                               0xde 
                          .rdata:00403d55 40                               0x40 '@'
                          .rdata:00403d56 00                               0x00 
                          .rdata:00403d57 00                               0x00 
                          .rdata:00403d58 d4                               0xd4 
                          .rdata:00403d59 40                               0x40 '@'
                          .rdata:00403d5a 00                               0x00 
                          .rdata:00403d5b 00                               0x00 
                          .rdata:00403d5c 3c                               0x3c '<'
                          .rdata:00403d5d 40                               0x40 '@'
                          .rdata:00403d5e 00                               0x00 
                          .rdata:00403d5f 00                               0x00 
                          .rdata:00403d60 be                               0xbe 
                          .rdata:00403d61 40                               0x40 '@'
                          .rdata:00403d62 00                               0x00 
                          .rdata:00403d63 00                               0x00 
                          .rdata:00403d64 b6                               0xb6 
                          .rdata:00403d65 40                               0x40 '@'
                          .rdata:00403d66 00                               0x00 
                          .rdata:00403d67 00                               0x00 
                          .rdata:00403d68 a8                               0xa8 
                          .rdata:00403d69 40                               0x40 '@'
                          .rdata:00403d6a 00                               0x00 
                          .rdata:00403d6b 00                               0x00 
                          .rdata:00403d6c 9c                               0x9c 
                          .rdata:00403d6d 40                               0x40 '@'
                          .rdata:00403d6e 00                               0x00 
                          .rdata:00403d6f 00                               0x00 
                          .rdata:00403d70 78                               0x78 'x'
                          .rdata:00403d71 40                               0x40 '@'
                          .rdata:00403d72 00                               0x00 
                          .rdata:00403d73 00                               0x00 
                          .rdata:00403d74 56                               0x56 'V'
                          .rdata:00403d75 40                               0x40 '@'
                          .rdata:00403d76 00                               0x00 
                          .rdata:00403d77 00                               0x00 
                          .rdata:00403d78 68                               0x68 'h'
                          .rdata:00403d79 41                               0x41 'A'
                          .rdata:00403d7a 00                               0x00 
                          .rdata:00403d7b 00                               0x00 
                          .rdata:00403d7c 00                               0x00 
                          .rdata:00403d7d 00                               0x00 
                          .rdata:00403d7e 00                               0x00 
                          .rdata:00403d7f 00                               0x00 
                          .rdata:00403d80 3c                               0x3c '<'
                          .rdata:00403d81 41                               0x41 'A'
                          .rdata:00403d82 00                               0x00 
                          .rdata:00403d83 00                               0x00 
                          .rdata:00403d84 c6                               0xc6 
                          .rdata:00403d85 40                               0x40 '@'
                          .rdata:00403d86 00                               0x00 
                          .rdata:00403d87 00                               0x00 
                          .rdata:00403d88 00                               0x00 
                          .rdata:00403d89 00                               0x00 
                          .rdata:00403d8a 00                               0x00 
                          .rdata:00403d8b 00                               0x00 
                          .rdata:00403d8c 52                               0x52 'R'
                          .rdata:00403d8d 05                               0x05 
                          .rdata:00403d8e 53                               0x53 'S'
                          .rdata:00403d8f 6c                               0x6c 'l'
                          .rdata:00403d90 65                               0x65 'e'
                          .rdata:00403d91 65                               0x65 'e'
                          .rdata:00403d92 70                               0x70 'p'
                          .rdata:00403d93 00                               0x00 
                          .rdata:00403d94 2e                               0x2e '.'
                          .rdata:00403d95 04                               0x04 
                          .rdata:00403d96 51                               0x51 'Q'
                          .rdata:00403d97 75                               0x75 'u'
                          .rdata:00403d98 65                               0x65 'e'
                          .rdata:00403d99 72                               0x72 'r'
                          .rdata:00403d9a 79                               0x79 'y'
                          .rdata:00403d9b 50                               0x50 'P'
                          .rdata:00403d9c 65                               0x65 'e'
                          .rdata:00403d9d 72                               0x72 'r'
                          .rdata:00403d9e 66                               0x66 'f'
                          .rdata:00403d9f 6f                               0x6f 'o'
                          .rdata:00403da0 72                               0x72 'r'
                          .rdata:00403da1 6d                               0x6d 'm'
                          .rdata:00403da2 61                               0x61 'a'
                          .rdata:00403da3 6e                               0x6e 'n'
                          .rdata:00403da4 63                               0x63 'c'
                          .rdata:00403da5 65                               0x65 'e'
                          .rdata:00403da6 46                               0x46 'F'
                          .rdata:00403da7 72                               0x72 'r'
                          .rdata:00403da8 65                               0x65 'e'
                          .rdata:00403da9 71                               0x71 'q'
                          .rdata:00403daa 75                               0x75 'u'
                          .rdata:00403dab 65                               0x65 'e'
                          .rdata:00403dac 6e                               0x6e 'n'
                          .rdata:00403dad 63                               0x63 'c'
                          .rdata:00403dae 79                               0x79 'y'
                          .rdata:00403daf 00                               0x00 
                          .rdata:00403db0 2d                               0x2d '-'
                          .rdata:00403db1 04                               0x04 
                          .rdata:00403db2 51                               0x51 'Q'
                          .rdata:00403db3 75                               0x75 'u'
                          .rdata:00403db4 65                               0x65 'e'
                          .rdata:00403db5 72                               0x72 'r'
                          .rdata:00403db6 79                               0x79 'y'
                          .rdata:00403db7 50                               0x50 'P'
                          .rdata:00403db8 65                               0x65 'e'
                          .rdata:00403db9 72                               0x72 'r'
                          .rdata:00403dba 66                               0x66 'f'
                          .rdata:00403dbb 6f                               0x6f 'o'
                          .rdata:00403dbc 72                               0x72 'r'
                          .rdata:00403dbd 6d                               0x6d 'm'
                          .rdata:00403dbe 61                               0x61 'a'
                          .rdata:00403dbf 6e                               0x6e 'n'
                          .rdata:00403dc0 63                               0x63 'c'
                          .rdata:00403dc1 65                               0x65 'e'
                          .rdata:00403dc2 43                               0x43 'C'
                          .rdata:00403dc3 6f                               0x6f 'o'
                          .rdata:00403dc4 75                               0x75 'u'
                          .rdata:00403dc5 6e                               0x6e 'n'
                          .rdata:00403dc6 74                               0x74 't'
                          .rdata:00403dc7 65                               0x65 'e'
                          .rdata:00403dc8 72                               0x72 'r'
                          .rdata:00403dc9 00                               0x00 
                          .rdata:00403dca 4b                               0x4b 'K'
                          .rdata:00403dcb 45                               0x45 'E'
                          .rdata:00403dcc 52                               0x52 'R'
                          .rdata:00403dcd 4e                               0x4e 'N'
                          .rdata:00403dce 45                               0x45 'E'
                          .rdata:00403dcf 4c                               0x4c 'L'
                          .rdata:00403dd0 33                               0x33 '3'
                          .rdata:00403dd1 32                               0x32 '2'
                          .rdata:00403dd2 2e                               0x2e '.'
                          .rdata:00403dd3 64                               0x64 'd'
                          .rdata:00403dd4 6c                               0x6c 'l'
                          .rdata:00403dd5 6c                               0x6c 'l'
                          .rdata:00403dd6 00                               0x00 
                          .rdata:00403dd7 00                               0x00 
                          .rdata:00403dd8 e9                               0xe9 
                          .rdata:00403dd9 00                               0x00 
                          .rdata:00403dda 45                               0x45 'E'
                          .rdata:00403ddb 6e                               0x6e 'n'
                          .rdata:00403ddc 64                               0x64 'd'
                          .rdata:00403ddd 50                               0x50 'P'
                          .rdata:00403dde 61                               0x61 'a'
                          .rdata:00403ddf 69                               0x69 'i'
                          .rdata:00403de0 6e                               0x6e 'n'
                          .rdata:00403de1 74                               0x74 't'
                          .rdata:00403de2 00                               0x00 
                          .rdata:00403de3 00                               0x00 
                          .rdata:00403de4 0e                               0x0e 
                          .rdata:00403de5 00                               0x00 
                          .rdata:00403de6 42                               0x42 'B'
                          .rdata:00403de7 65                               0x65 'e'
                          .rdata:00403de8 67                               0x67 'g'
                          .rdata:00403de9 69                               0x69 'i'
                          .rdata:00403dea 6e                               0x6e 'n'
                          .rdata:00403deb 50                               0x50 'P'
                          .rdata:00403dec 61                               0x61 'a'
                          .rdata:00403ded 69                               0x69 'i'
                          .rdata:00403dee 6e                               0x6e 'n'
                          .rdata:00403def 74                               0x74 't'
                          .rdata:00403df0 00                               0x00 
                          .rdata:00403df1 00                               0x00 
                          .rdata:00403df2 ef                               0xef 
                          .rdata:00403df3 01                               0x01 
                          .rdata:00403df4 49                               0x49 'I'
                          .rdata:00403df5 6e                               0x6e 'n'
                          .rdata:00403df6 76                               0x76 'v'
                          .rdata:00403df7 61                               0x61 'a'
                          .rdata:00403df8 6c                               0x6c 'l'
                          .rdata:00403df9 69                               0x69 'i'
                          .rdata:00403dfa 64                               0x64 'd'
                          .rdata:00403dfb 61                               0x61 'a'
                          .rdata:00403dfc 74                               0x74 't'
                          .rdata:00403dfd 65                               0x65 'e'
                          .rdata:00403dfe 52                               0x52 'R'
                          .rdata:00403dff 65                               0x65 'e'
                          .rdata:00403e00 63                               0x63 'c'
                          .rdata:00403e01 74                               0x74 't'
                          .rdata:00403e02 00                               0x00 
                          .rdata:00403e03 00                               0x00 
                          .rdata:00403e04 57                               0x57 'W'
                          .rdata:00403e05 03                               0x03 
                          .rdata:00403e06 55                               0x55 'U'
                          .rdata:00403e07 70                               0x70 'p'
                          .rdata:00403e08 64                               0x64 'd'
                          .rdata:00403e09 61                               0x61 'a'
                          .rdata:00403e0a 74                               0x74 't'
                          .rdata:00403e0b 65                               0x65 'e'
                          .rdata:00403e0c 57                               0x57 'W'
                          .rdata:00403e0d 69                               0x69 'i'
                          .rdata:00403e0e 6e                               0x6e 'n'
                          .rdata:00403e0f 64                               0x64 'd'
                          .rdata:00403e10 6f                               0x6f 'o'
                          .rdata:00403e11 77                               0x77 'w'
                          .rdata:00403e12 00                               0x00 
                          .rdata:00403e13 00                               0x00 
                          .rdata:00403e14 71                               0x71 'q'
                          .rdata:00403e15 02                               0x02 
                          .rdata:00403e16 50                               0x50 'P'
                          .rdata:00403e17 6f                               0x6f 'o'
                          .rdata:00403e18 73                               0x73 's'
                          .rdata:00403e19 74                               0x74 't'
                          .rdata:00403e1a 51                               0x51 'Q'
                          .rdata:00403e1b 75                               0x75 'u'
                          .rdata:00403e1c 69                               0x69 'i'
                          .rdata:00403e1d 74                               0x74 't'
                          .rdata:00403e1e 4d                               0x4d 'M'
                          .rdata:00403e1f 65                               0x65 'e'
                          .rdata:00403e20 73                               0x73 's'
                          .rdata:00403e21 73                               0x73 's'
                          .rdata:00403e22 61                               0x61 'a'
                          .rdata:00403e23 67                               0x67 'g'
                          .rdata:00403e24 65                               0x65 'e'
                          .rdata:00403e25 00                               0x00 
                          .rdata:00403e26 6b                               0x6b 'k'
                          .rdata:00403e27 02                               0x02 
                          .rdata:00403e28 50                               0x50 'P'
                          .rdata:00403e29 65                               0x65 'e'
                          .rdata:00403e2a 65                               0x65 'e'
                          .rdata:00403e2b 6b                               0x6b 'k'
                          .rdata:00403e2c 4d                               0x4d 'M'
                          .rdata:00403e2d 65                               0x65 'e'
                          .rdata:00403e2e 73                               0x73 's'
                          .rdata:00403e2f 73                               0x73 's'
                          .rdata:00403e30 61                               0x61 'a'
                          .rdata:00403e31 67                               0x67 'g'
                          .rdata:00403e32 65                               0x65 'e'
                          .rdata:00403e33 41                               0x41 'A'
                          .rdata:00403e34 00                               0x00 
                          .rdata:00403e35 00                               0x00 
                          .rdata:00403e36 22                               0x22 '"'
                          .rdata:00403e37 02                               0x02 
                          .rdata:00403e38 4c                               0x4c 'L'
                          .rdata:00403e39 6f                               0x6f 'o'
                          .rdata:00403e3a 61                               0x61 'a'
                          .rdata:00403e3b 64                               0x64 'd'
                          .rdata:00403e3c 49                               0x49 'I'
                          .rdata:00403e3d 63                               0x63 'c'
                          .rdata:00403e3e 6f                               0x6f 'o'
                          .rdata:00403e3f 6e                               0x6e 'n'
                          .rdata:00403e40 41                               0x41 'A'
                          .rdata:00403e41 00                               0x00 
                          .rdata:00403e42 79                               0x79 'y'
                          .rdata:00403e43 03                               0x03 
                          .rdata:00403e44 6d                               0x6d 'm'
                          .rdata:00403e45 6f                               0x6f 'o'
                          .rdata:00403e46 75                               0x75 'u'
                          .rdata:00403e47 73                               0x73 's'
                          .rdata:00403e48 65                               0x65 'e'
                          .rdata:00403e49 5f                               0x5f '_'
                          .rdata:00403e4a 65                               0x65 'e'
                          .rdata:00403e4b 76                               0x76 'v'
                          .rdata:00403e4c 65                               0x65 'e'
                          .rdata:00403e4d 6e                               0x6e 'n'
                          .rdata:00403e4e 74                               0x74 't'
                          .rdata:00403e4f 00                               0x00 
                          .rdata:00403e50 b7                               0xb7 
                          .rdata:00403e51 02                               0x02 
                          .rdata:00403e52 53                               0x53 'S'
                          .rdata:00403e53 65                               0x65 'e'
                          .rdata:00403e54 6e                               0x6e 'n'
                          .rdata:00403e55 64                               0x64 'd'
                          .rdata:00403e56 4d                               0x4d 'M'
                          .rdata:00403e57 65                               0x65 'e'
                          .rdata:00403e58 73                               0x73 's'
                          .rdata:00403e59 73                               0x73 's'
                          .rdata:00403e5a 61                               0x61 'a'
                          .rdata:00403e5b 67                               0x67 'g'
                          .rdata:00403e5c 65                               0x65 'e'
                          .rdata:00403e5d 41                               0x41 'A'
                          .rdata:00403e5e 00                               0x00 
                          .rdata:00403e5f 00                               0x00 
                          .rdata:00403e60 d1                               0xd1 
                          .rdata:00403e61 02                               0x02 
                          .rdata:00403e62 53                               0x53 'S'
                          .rdata:00403e63 65                               0x65 'e'
                          .rdata:00403e64 74                               0x74 't'
                          .rdata:00403e65 44                               0x44 'D'
                          .rdata:00403e66 6c                               0x6c 'l'
                          .rdata:00403e67 67                               0x67 'g'
                          .rdata:00403e68 49                               0x49 'I'
                          .rdata:00403e69 74                               0x74 't'
                          .rdata:00403e6a 65                               0x65 'e'
                          .rdata:00403e6b 6d                               0x6d 'm'
                          .rdata:00403e6c 54                               0x54 'T'
                          .rdata:00403e6d 65                               0x65 'e'
                          .rdata:00403e6e 78                               0x78 'x'
                          .rdata:00403e6f 74                               0x74 't'
                          .rdata:00403e70 41                               0x41 'A'
                          .rdata:00403e71 00                               0x00 
                          .rdata:00403e72 3f                               0x3f '?'
                          .rdata:00403e73 03                               0x03 
                          .rdata:00403e74 54                               0x54 'T'
                          .rdata:00403e75 72                               0x72 'r'
                          .rdata:00403e76 61                               0x61 'a'
                          .rdata:00403e77 6e                               0x6e 'n'
                          .rdata:00403e78 73                               0x73 's'
                          .rdata:00403e79 6c                               0x6c 'l'
                          .rdata:00403e7a 61                               0x61 'a'
                          .rdata:00403e7b 74                               0x74 't'
                          .rdata:00403e7c 65                               0x65 'e'
                          .rdata:00403e7d 4d                               0x4d 'M'
                          .rdata:00403e7e 65                               0x65 'e'
                          .rdata:00403e7f 73                               0x73 's'
                          .rdata:00403e80 73                               0x73 's'
                          .rdata:00403e81 61                               0x61 'a'
                          .rdata:00403e82 67                               0x67 'g'
                          .rdata:00403e83 65                               0x65 'e'
                          .rdata:00403e84 00                               0x00 
                          .rdata:00403e85 00                               0x00 
                          .rdata:00403e86 d4                               0xd4 
                          .rdata:00403e87 02                               0x02 
                          .rdata:00403e88 53                               0x53 'S'
                          .rdata:00403e89 65                               0x65 'e'
                          .rdata:00403e8a 74                               0x74 't'
                          .rdata:00403e8b 46                               0x46 'F'
                          .rdata:00403e8c 6f                               0x6f 'o'
                          .rdata:00403e8d 63                               0x63 'c'
                          .rdata:00403e8e 75                               0x75 'u'
                          .rdata:00403e8f 73                               0x73 's'
                          .rdata:00403e90 00                               0x00 
                          .rdata:00403e91 00                               0x00 
                          .rdata:00403e92 70                               0x70 'p'
                          .rdata:00403e93 00                               0x00 
                          .rdata:00403e94 43                               0x43 'C'
                          .rdata:00403e95 72                               0x72 'r'
                          .rdata:00403e96 65                               0x65 'e'
                          .rdata:00403e97 61                               0x61 'a'
                          .rdata:00403e98 74                               0x74 't'
                          .rdata:00403e99 65                               0x65 'e'
                          .rdata:00403e9a 57                               0x57 'W'
                          .rdata:00403e9b 69                               0x69 'i'
                          .rdata:00403e9c 6e                               0x6e 'n'
                          .rdata:00403e9d 64                               0x64 'd'
                          .rdata:00403e9e 6f                               0x6f 'o'
                          .rdata:00403e9f 77                               0x77 'w'
                          .rdata:00403ea0 45                               0x45 'E'
                          .rdata:00403ea1 78                               0x78 'x'
                          .rdata:00403ea2 41                               0x41 'A'
                          .rdata:00403ea3 00                               0x00 
                          .rdata:00403ea4 a0                               0xa0 
                          .rdata:00403ea5 00                               0x00 
                          .rdata:00403ea6 44                               0x44 'D'
                          .rdata:00403ea7 65                               0x65 'e'
                          .rdata:00403ea8 66                               0x66 'f'
                          .rdata:00403ea9 57                               0x57 'W'
                          .rdata:00403eaa 69                               0x69 'i'
                          .rdata:00403eab 6e                               0x6e 'n'
                          .rdata:00403eac 64                               0x64 'd'
                          .rdata:00403ead 6f                               0x6f 'o'
                          .rdata:00403eae 77                               0x77 'w'
                          .rdata:00403eaf 50                               0x50 'P'
                          .rdata:00403eb0 72                               0x72 'r'
                          .rdata:00403eb1 6f                               0x6f 'o'
                          .rdata:00403eb2 63                               0x63 'c'
                          .rdata:00403eb3 41                               0x41 'A'
                          .rdata:00403eb4 00                               0x00 
                          .rdata:00403eb5 00                               0x00 
                          .rdata:00403eb6 87                               0x87 
                          .rdata:00403eb7 02                               0x02 
                          .rdata:00403eb8 52                               0x52 'R'
                          .rdata:00403eb9 65                               0x65 'e'
                          .rdata:00403eba 67                               0x67 'g'
                          .rdata:00403ebb 69                               0x69 'i'
                          .rdata:00403ebc 73                               0x73 's'
                          .rdata:00403ebd 74                               0x74 't'
                          .rdata:00403ebe 65                               0x65 'e'
                          .rdata:00403ebf 72                               0x72 'r'
                          .rdata:00403ec0 43                               0x43 'C'
                          .rdata:00403ec1 6c                               0x6c 'l'
                          .rdata:00403ec2 61                               0x61 'a'
                          .rdata:00403ec3 73                               0x73 's'
                          .rdata:00403ec4 73                               0x73 's'
                          .rdata:00403ec5 41                               0x41 'A'
                          .rdata:00403ec6 00                               0x00 
                          .rdata:00403ec7 00                               0x00 
                          .rdata:00403ec8 46                               0x46 'F'
                          .rdata:00403ec9 02                               0x02 
                          .rdata:00403eca 4d                               0x4d 'M'
                          .rdata:00403ecb 65                               0x65 'e'
                          .rdata:00403ecc 73                               0x73 's'
                          .rdata:00403ecd 73                               0x73 's'
                          .rdata:00403ece 61                               0x61 'a'
                          .rdata:00403ecf 67                               0x67 'g'
                          .rdata:00403ed0 65                               0x65 'e'
                          .rdata:00403ed1 42                               0x42 'B'
                          .rdata:00403ed2 6f                               0x6f 'o'
                          .rdata:00403ed3 78                               0x78 'x'
                          .rdata:00403ed4 41                               0x41 'A'
                          .rdata:00403ed5 00                               0x00 
                          .rdata:00403ed6 3b                               0x3b ';'
                          .rdata:00403ed7 01                               0x01 
                          .rdata:00403ed8 47                               0x47 'G'
                          .rdata:00403ed9 65                               0x65 'e'
                          .rdata:00403eda 74                               0x74 't'
                          .rdata:00403edb 44                               0x44 'D'
                          .rdata:00403edc 6c                               0x6c 'l'
                          .rdata:00403edd 67                               0x67 'g'
                          .rdata:00403ede 43                               0x43 'C'
                          .rdata:00403edf 74                               0x74 't'
                          .rdata:00403ee0 72                               0x72 'r'
                          .rdata:00403ee1 6c                               0x6c 'l'
                          .rdata:00403ee2 49                               0x49 'I'
                          .rdata:00403ee3 44                               0x44 'D'
                          .rdata:00403ee4 00                               0x00 
                          .rdata:00403ee5 00                               0x00 
                          .rdata:00403ee6 3e                               0x3e '>'
                          .rdata:00403ee7 01                               0x01 
                          .rdata:00403ee8 47                               0x47 'G'
                          .rdata:00403ee9 65                               0x65 'e'
                          .rdata:00403eea 74                               0x74 't'
                          .rdata:00403eeb 44                               0x44 'D'
                          .rdata:00403eec 6c                               0x6c 'l'
                          .rdata:00403eed 67                               0x67 'g'
                          .rdata:00403eee 49                               0x49 'I'
                          .rdata:00403eef 74                               0x74 't'
                          .rdata:00403ef0 65                               0x65 'e'
                          .rdata:00403ef1 6d                               0x6d 'm'
                          .rdata:00403ef2 54                               0x54 'T'
                          .rdata:00403ef3 65                               0x65 'e'
                          .rdata:00403ef4 78                               0x78 'x'
                          .rdata:00403ef5 74                               0x74 't'
                          .rdata:00403ef6 41                               0x41 'A'
                          .rdata:00403ef7 00                               0x00 
                          .rdata:00403ef8 16                               0x16 
                          .rdata:00403ef9 01                               0x01 
                          .rdata:00403efa 47                               0x47 'G'
                          .rdata:00403efb 65                               0x65 'e'
                          .rdata:00403efc 74                               0x74 't'
                          .rdata:00403efd 41                               0x41 'A'
                          .rdata:00403efe 73                               0x73 's'
                          .rdata:00403eff 79                               0x79 'y'
                          .rdata:00403f00 6e                               0x6e 'n'
                          .rdata:00403f01 63                               0x63 'c'
                          .rdata:00403f02 4b                               0x4b 'K'
                          .rdata:00403f03 65                               0x65 'e'
                          .rdata:00403f04 79                               0x79 'y'
                          .rdata:00403f05 53                               0x53 'S'
                          .rdata:00403f06 74                               0x74 't'
                          .rdata:00403f07 61                               0x61 'a'
                          .rdata:00403f08 74                               0x74 't'
                          .rdata:00403f09 65                               0x65 'e'
                          .rdata:00403f0a 00                               0x00 
                          .rdata:00403f0b 00                               0x00 
                          .rdata:00403f0c 20                               0x20 ' '
                          .rdata:00403f0d 03                               0x03 
                          .rdata:00403f0e 53                               0x53 'S'
                          .rdata:00403f0f 68                               0x68 'h'
                          .rdata:00403f10 6f                               0x6f 'o'
                          .rdata:00403f11 77                               0x77 'w'
                          .rdata:00403f12 57                               0x57 'W'
                          .rdata:00403f13 69                               0x69 'i'
                          .rdata:00403f14 6e                               0x6e 'n'
                          .rdata:00403f15 64                               0x64 'd'
                          .rdata:00403f16 6f                               0x6f 'o'
                          .rdata:00403f17 77                               0x77 'w'
                          .rdata:00403f18 00                               0x00 
                          .rdata:00403f19 00                               0x00 
                          .rdata:00403f1a 78                               0x78 'x'
                          .rdata:00403f1b 03                               0x03 
                          .rdata:00403f1c 6b                               0x6b 'k'
                          .rdata:00403f1d 65                               0x65 'e'
                          .rdata:00403f1e 79                               0x79 'y'
                          .rdata:00403f1f 62                               0x62 'b'
                          .rdata:00403f20 64                               0x64 'd'
                          .rdata:00403f21 5f                               0x5f '_'
                          .rdata:00403f22 65                               0x65 'e'
                          .rdata:00403f23 76                               0x76 'v'
                          .rdata:00403f24 65                               0x65 'e'
                          .rdata:00403f25 6e                               0x6e 'n'
                          .rdata:00403f26 74                               0x74 't'
                          .rdata:00403f27 00                               0x00 
                          .rdata:00403f28 1e                               0x1e 
                          .rdata:00403f29 02                               0x02 
                          .rdata:00403f2a 4c                               0x4c 'L'
                          .rdata:00403f2b 6f                               0x6f 'o'
                          .rdata:00403f2c 61                               0x61 'a'
                          .rdata:00403f2d 64                               0x64 'd'
                          .rdata:00403f2e 43                               0x43 'C'
                          .rdata:00403f2f 75                               0x75 'u'
                          .rdata:00403f30 72                               0x72 'r'
                          .rdata:00403f31 73                               0x73 's'
                          .rdata:00403f32 6f                               0x6f 'o'
                          .rdata:00403f33 72                               0x72 'r'
                          .rdata:00403f34 41                               0x41 'A'
                          .rdata:00403f35 00                               0x00 
                          .rdata:00403f36 b4                               0xb4 
                          .rdata:00403f37 00                               0x00 
                          .rdata:00403f38 44                               0x44 'D'
                          .rdata:00403f39 69                               0x69 'i'
                          .rdata:00403f3a 73                               0x73 's'
                          .rdata:00403f3b 70                               0x70 'p'
                          .rdata:00403f3c 61                               0x61 'a'
                          .rdata:00403f3d 74                               0x74 't'
                          .rdata:00403f3e 63                               0x63 'c'
                          .rdata:00403f3f 68                               0x68 'h'
                          .rdata:00403f40 4d                               0x4d 'M'
                          .rdata:00403f41 65                               0x65 'e'
                          .rdata:00403f42 73                               0x73 's'
                          .rdata:00403f43 73                               0x73 's'
                          .rdata:00403f44 61                               0x61 'a'
                          .rdata:00403f45 67                               0x67 'g'
                          .rdata:00403f46 65                               0x65 'e'
                          .rdata:00403f47 41                               0x41 'A'
                          .rdata:00403f48 00                               0x00 
                          .rdata:00403f49 00                               0x00 
                          .rdata:00403f4a 55                               0x55 'U'
                          .rdata:00403f4b 53                               0x53 'S'
                          .rdata:00403f4c 45                               0x45 'E'
                          .rdata:00403f4d 52                               0x52 'R'
                          .rdata:00403f4e 33                               0x33 '3'
                          .rdata:00403f4f 32                               0x32 '2'
                          .rdata:00403f50 2e                               0x2e '.'
                          .rdata:00403f51 64                               0x64 'd'
                          .rdata:00403f52 6c                               0x6c 'l'
                          .rdata:00403f53 6c                               0x6c 'l'
                          .rdata:00403f54 00                               0x00 
                          .rdata:00403f55 00                               0x00 
                          .rdata:00403f56 39                               0x39 '9'
                          .rdata:00403f57 02                               0x02 
                          .rdata:00403f58 47                               0x47 'G'
                          .rdata:00403f59 65                               0x65 'e'
                          .rdata:00403f5a 74                               0x74 't'
                          .rdata:00403f5b 53                               0x53 'S'
                          .rdata:00403f5c 74                               0x74 't'
                          .rdata:00403f5d 6f                               0x6f 'o'
                          .rdata:00403f5e 63                               0x63 'c'
                          .rdata:00403f5f 6b                               0x6b 'k'
                          .rdata:00403f60 4f                               0x4f 'O'
                          .rdata:00403f61 62                               0x62 'b'
                          .rdata:00403f62 6a                               0x6a 'j'
                          .rdata:00403f63 65                               0x65 'e'
                          .rdata:00403f64 63                               0x63 'c'
                          .rdata:00403f65 74                               0x74 't'
                          .rdata:00403f66 00                               0x00 
                          .rdata:00403f67 00                               0x00 
                          .rdata:00403f68 47                               0x47 'G'
                          .rdata:00403f69 44                               0x44 'D'
                          .rdata:00403f6a 49                               0x49 'I'
                          .rdata:00403f6b 33                               0x33 '3'
                          .rdata:00403f6c 32                               0x32 '2'
                          .rdata:00403f6d 2e                               0x2e '.'
                          .rdata:00403f6e 64                               0x64 'd'
                          .rdata:00403f6f 6c                               0x6c 'l'
                          .rdata:00403f70 6c                               0x6c 'l'
                          .rdata:00403f71 00                               0x00 
                          .rdata:00403f72 28                               0x28 '('
                          .rdata:00403f73 00                               0x00 
                          .rdata:00403f74 5f                               0x5f '_'
                          .rdata:00403f75 5f                               0x5f '_'
                          .rdata:00403f76 74                               0x74 't'
                          .rdata:00403f77 65                               0x65 'e'
                          .rdata:00403f78 6c                               0x6c 'l'
                          .rdata:00403f79 65                               0x65 'e'
                          .rdata:00403f7a 6d                               0x6d 'm'
                          .rdata:00403f7b 65                               0x65 'e'
                          .rdata:00403f7c 74                               0x74 't'
                          .rdata:00403f7d 72                               0x72 'r'
                          .rdata:00403f7e 79                               0x79 'y'
                          .rdata:00403f7f 5f                               0x5f '_'
                          .rdata:00403f80 6d                               0x6d 'm'
                          .rdata:00403f81 61                               0x61 'a'
                          .rdata:00403f82 69                               0x69 'i'
                          .rdata:00403f83 6e                               0x6e 'n'
                          .rdata:00403f84 5f                               0x5f '_'
                          .rdata:00403f85 69                               0x69 'i'
                          .rdata:00403f86 6e                               0x6e 'n'
                          .rdata:00403f87 76                               0x76 'v'
                          .rdata:00403f88 6f                               0x6f 'o'
                          .rdata:00403f89 6b                               0x6b 'k'
                          .rdata:00403f8a 65                               0x65 'e'
                          .rdata:00403f8b 5f                               0x5f '_'
                          .rdata:00403f8c 74                               0x74 't'
                          .rdata:00403f8d 72                               0x72 'r'
                          .rdata:00403f8e 69                               0x69 'i'
                          .rdata:00403f8f 67                               0x67 'g'
                          .rdata:00403f90 67                               0x67 'g'
                          .rdata:00403f91 65                               0x65 'e'
                          .rdata:00403f92 72                               0x72 'r'
                          .rdata:00403f93 00                               0x00 
                          .rdata:00403f94 29                               0x29 ')'
                          .rdata:00403f95 00                               0x00 
                          .rdata:00403f96 5f                               0x5f '_'
                          .rdata:00403f97 5f                               0x5f '_'
                          .rdata:00403f98 74                               0x74 't'
                          .rdata:00403f99 65                               0x65 'e'
                          .rdata:00403f9a 6c                               0x6c 'l'
                          .rdata:00403f9b 65                               0x65 'e'
                          .rdata:00403f9c 6d                               0x6d 'm'
                          .rdata:00403f9d 65                               0x65 'e'
                          .rdata:00403f9e 74                               0x74 't'
                          .rdata:00403f9f 72                               0x72 'r'
                          .rdata:00403fa0 79                               0x79 'y'
                          .rdata:00403fa1 5f                               0x5f '_'
                          .rdata:00403fa2 6d                               0x6d 'm'
                          .rdata:00403fa3 61                               0x61 'a'
                          .rdata:00403fa4 69                               0x69 'i'
                          .rdata:00403fa5 6e                               0x6e 'n'
                          .rdata:00403fa6 5f                               0x5f '_'
                          .rdata:00403fa7 72                               0x72 'r'
                          .rdata:00403fa8 65                               0x65 'e'
                          .rdata:00403fa9 74                               0x74 't'
                          .rdata:00403faa 75                               0x75 'u'
                          .rdata:00403fab 72                               0x72 'r'
                          .rdata:00403fac 6e                               0x6e 'n'
                          .rdata:00403fad 5f                               0x5f '_'
                          .rdata:00403fae 74                               0x74 't'
                          .rdata:00403faf 72                               0x72 'r'
                          .rdata:00403fb0 69                               0x69 'i'
                          .rdata:00403fb1 67                               0x67 'g'
                          .rdata:00403fb2 67                               0x67 'g'
                          .rdata:00403fb3 65                               0x65 'e'
                          .rdata:00403fb4 72                               0x72 'r'
                          .rdata:00403fb5 00                               0x00 
                          .rdata:00403fb6 48                               0x48 'H'
                          .rdata:00403fb7 00                               0x00 
                          .rdata:00403fb8 6d                               0x6d 'm'
                          .rdata:00403fb9 65                               0x65 'e'
                          .rdata:00403fba 6d                               0x6d 'm'
                          .rdata:00403fbb 73                               0x73 's'
                          .rdata:00403fbc 65                               0x65 'e'
                          .rdata:00403fbd 74                               0x74 't'
                          .rdata:00403fbe 00                               0x00 
                          .rdata:00403fbf 00                               0x00 
                          .rdata:00403fc0 35                               0x35 '5'
                          .rdata:00403fc1 00                               0x00 
                          .rdata:00403fc2 5f                               0x5f '_'
                          .rdata:00403fc3 65                               0x65 'e'
                          .rdata:00403fc4 78                               0x78 'x'
                          .rdata:00403fc5 63                               0x63 'c'
                          .rdata:00403fc6 65                               0x65 'e'
                          .rdata:00403fc7 70                               0x70 'p'
                          .rdata:00403fc8 74                               0x74 't'
                          .rdata:00403fc9 5f                               0x5f '_'
                          .rdata:00403fca 68                               0x68 'h'
                          .rdata:00403fcb 61                               0x61 'a'
                          .rdata:00403fcc 6e                               0x6e 'n'
                          .rdata:00403fcd 64                               0x64 'd'
                          .rdata:00403fce 6c                               0x6c 'l'
                          .rdata:00403fcf 65                               0x65 'e'
                          .rdata:00403fd0 72                               0x72 'r'
                          .rdata:00403fd1 34                               0x34 '4'
                          .rdata:00403fd2 5f                               0x5f '_'
                          .rdata:00403fd3 63                               0x63 'c'
                          .rdata:00403fd4 6f                               0x6f 'o'
                          .rdata:00403fd5 6d                               0x6d 'm'
                          .rdata:00403fd6 6d                               0x6d 'm'
                          .rdata:00403fd7 6f                               0x6f 'o'
                          .rdata:00403fd8 6e                               0x6e 'n'
                          .rdata:00403fd9 00                               0x00 
                          .rdata:00403fda 56                               0x56 'V'
                          .rdata:00403fdb 43                               0x43 'C'
                          .rdata:00403fdc 52                               0x52 'R'
                          .rdata:00403fdd 55                               0x55 'U'
                          .rdata:00403fde 4e                               0x4e 'N'
                          .rdata:00403fdf 54                               0x54 'T'
                          .rdata:00403fe0 49                               0x49 'I'
                          .rdata:00403fe1 4d                               0x4d 'M'
                          .rdata:00403fe2 45                               0x45 'E'
                          .rdata:00403fe3 31                               0x31 '1'
                          .rdata:00403fe4 34                               0x34 '4'
                          .rdata:00403fe5 30                               0x30 '0'
                          .rdata:00403fe6 2e                               0x2e '.'
                          .rdata:00403fe7 64                               0x64 'd'
                          .rdata:00403fe8 6c                               0x6c 'l'
                          .rdata:00403fe9 6c                               0x6c 'l'
                          .rdata:00403fea 00                               0x00 
                          .rdata:00403feb 00                               0x00 
                          .rdata:00403fec 18                               0x18 
                          .rdata:00403fed 00                               0x00 
                          .rdata:00403fee 5f                               0x5f '_'
                          .rdata:00403fef 69                               0x69 'i'
                          .rdata:00403ff0 74                               0x74 't'
                          .rdata:00403ff1 6f                               0x6f 'o'
                          .rdata:00403ff2 61                               0x61 'a'
                          .rdata:00403ff3 5f                               0x5f '_'
                          .rdata:00403ff4 73                               0x73 's'
                          .rdata:00403ff5 00                               0x00 
                          .rdata:00403ff6 50                               0x50 'P'
                          .rdata:00403ff7 00                               0x00 
                          .rdata:00403ff8 61                               0x61 'a'
                          .rdata:00403ff9 74                               0x74 't'
                          .rdata:00403ffa 6f                               0x6f 'o'
                          .rdata:00403ffb 69                               0x69 'i'
                          .rdata:00403ffc 00                               0x00 
                          .rdata:00403ffd 00                               0x00 
                          .rdata:00403ffe 4f                               0x4f 'O'
                          .rdata:00403fff 00                               0x00 
                          .rdata:00404000 61                               0x61 'a'
                          .rdata:00404001 74                               0x74 't'
                          .rdata:00404002 6f                               0x6f 'o'
                          .rdata:00404003 66                               0x66 'f'
                          .rdata:00404004 00                               0x00 
                          .rdata:00404005 00                               0x00 
                          .rdata:00404006 42                               0x42 'B'
                          .rdata:00404007 00                               0x00 
                          .rdata:00404008 5f                               0x5f '_'
                          .rdata:00404009 73                               0x73 's'
                          .rdata:0040400a 65                               0x65 'e'
                          .rdata:0040400b 68                               0x68 'h'
                          .rdata:0040400c 5f                               0x5f '_'
                          .rdata:0040400d 66                               0x66 'f'
                          .rdata:0040400e 69                               0x69 'i'
                          .rdata:0040400f 6c                               0x6c 'l'
                          .rdata:00404010 74                               0x74 't'
                          .rdata:00404011 65                               0x65 'e'
                          .rdata:00404012 72                               0x72 'r'
                          .rdata:00404013 5f                               0x5f '_'
                          .rdata:00404014 65                               0x65 'e'
                          .rdata:00404015 78                               0x78 'x'
                          .rdata:00404016 65                               0x65 'e'
                          .rdata:00404017 00                               0x00 
                          .rdata:00404018 44                               0x44 'D'
                          .rdata:00404019 00                               0x00 
                          .rdata:0040401a 5f                               0x5f '_'
                          .rdata:0040401b 73                               0x73 's'
                          .rdata:0040401c 65                               0x65 'e'
                          .rdata:0040401d 74                               0x74 't'
                          .rdata:0040401e 5f                               0x5f '_'
                          .rdata:0040401f 61                               0x61 'a'
                          .rdata:00404020 70                               0x70 'p'
                          .rdata:00404021 70                               0x70 'p'
                          .rdata:00404022 5f                               0x5f '_'
                          .rdata:00404023 74                               0x74 't'
                          .rdata:00404024 79                               0x79 'y'
                          .rdata:00404025 70                               0x70 'p'
                          .rdata:00404026 65                               0x65 'e'
                          .rdata:00404027 00                               0x00 
                          .rdata:00404028 2e                               0x2e '.'
                          .rdata:00404029 00                               0x00 
                          .rdata:0040402a 5f                               0x5f '_'
                          .rdata:0040402b 5f                               0x5f '_'
                          .rdata:0040402c 73                               0x73 's'
                          .rdata:0040402d 65                               0x65 'e'
                          .rdata:0040402e 74                               0x74 't'
                          .rdata:0040402f 75                               0x75 'u'
                          .rdata:00404030 73                               0x73 's'
                          .rdata:00404031 65                               0x65 'e'
                          .rdata:00404032 72                               0x72 'r'
                          .rdata:00404033 6d                               0x6d 'm'
                          .rdata:00404034 61                               0x61 'a'
                          .rdata:00404035 74                               0x74 't'
                          .rdata:00404036 68                               0x68 'h'
                          .rdata:00404037 65                               0x65 'e'
                          .rdata:00404038 72                               0x72 'r'
                          .rdata:00404039 72                               0x72 'r'
                          .rdata:0040403a 00                               0x00 
                          .rdata:0040403b 00                               0x00 
                          .rdata:0040403c 19                               0x19 
                          .rdata:0040403d 00                               0x00 
                          .rdata:0040403e 5f                               0x5f '_'
                          .rdata:0040403f 63                               0x63 'c'
                          .rdata:00404040 6f                               0x6f 'o'
                          .rdata:00404041 6e                               0x6e 'n'
                          .rdata:00404042 66                               0x66 'f'
                          .rdata:00404043 69                               0x69 'i'
                          .rdata:00404044 67                               0x67 'g'
                          .rdata:00404045 75                               0x75 'u'
                          .rdata:00404046 72                               0x72 'r'
                          .rdata:00404047 65                               0x65 'e'
                          .rdata:00404048 5f                               0x5f '_'
                          .rdata:00404049 6e                               0x6e 'n'
                          .rdata:0040404a 61                               0x61 'a'
                          .rdata:0040404b 72                               0x72 'r'
                          .rdata:0040404c 72                               0x72 'r'
                          .rdata:0040404d 6f                               0x6f 'o'
                          .rdata:0040404e 77                               0x77 'w'
                          .rdata:0040404f 5f                               0x5f '_'
                          .rdata:00404050 61                               0x61 'a'
                          .rdata:00404051 72                               0x72 'r'
                          .rdata:00404052 67                               0x67 'g'
                          .rdata:00404053 76                               0x76 'v'
                          .rdata:00404054 00                               0x00 
                          .rdata:00404055 00                               0x00 
                          .rdata:00404056 35                               0x35 '5'
                          .rdata:00404057 00                               0x00 
                          .rdata:00404058 5f                               0x5f '_'
                          .rdata:00404059 69                               0x69 'i'
                          .rdata:0040405a 6e                               0x6e 'n'
                          .rdata:0040405b 69                               0x69 'i'
                          .rdata:0040405c 74                               0x74 't'
                          .rdata:0040405d 69                               0x69 'i'
                          .rdata:0040405e 61                               0x61 'a'
                          .rdata:0040405f 6c                               0x6c 'l'
                          .rdata:00404060 69                               0x69 'i'
                          .rdata:00404061 7a                               0x7a 'z'
                          .rdata:00404062 65                               0x65 'e'
                          .rdata:00404063 5f                               0x5f '_'
                          .rdata:00404064 6e                               0x6e 'n'
                          .rdata:00404065 61                               0x61 'a'
                          .rdata:00404066 72                               0x72 'r'
                          .rdata:00404067 72                               0x72 'r'
                          .rdata:00404068 6f                               0x6f 'o'
                          .rdata:00404069 77                               0x77 'w'
                          .rdata:0040406a 5f                               0x5f '_'
                          .rdata:0040406b 65                               0x65 'e'
                          .rdata:0040406c 6e                               0x6e 'n'
                          .rdata:0040406d 76                               0x76 'v'
                          .rdata:0040406e 69                               0x69 'i'
                          .rdata:0040406f 72                               0x72 'r'
                          .rdata:00404070 6f                               0x6f 'o'
                          .rdata:00404071 6e                               0x6e 'n'
                          .rdata:00404072 6d                               0x6d 'm'
                          .rdata:00404073 65                               0x65 'e'
                          .rdata:00404074 6e                               0x6e 'n'
                          .rdata:00404075 74                               0x74 't'
                          .rdata:00404076 00                               0x00 
                          .rdata:00404077 00                               0x00 
                          .rdata:00404078 2d                               0x2d '-'
                          .rdata:00404079 00                               0x00 
                          .rdata:0040407a 5f                               0x5f '_'
                          .rdata:0040407b 67                               0x67 'g'
                          .rdata:0040407c 65                               0x65 'e'
                          .rdata:0040407d 74                               0x74 't'
                          .rdata:0040407e 5f                               0x5f '_'
                          .rdata:0040407f 6e                               0x6e 'n'
                          .rdata:00404080 61                               0x61 'a'
                          .rdata:00404081 72                               0x72 'r'
                          .rdata:00404082 72                               0x72 'r'
                          .rdata:00404083 6f                               0x6f 'o'
                          .rdata:00404084 77                               0x77 'w'
                          .rdata:00404085 5f                               0x5f '_'
                          .rdata:00404086 77                               0x77 'w'
                          .rdata:00404087 69                               0x69 'i'
                          .rdata:00404088 6e                               0x6e 'n'
                          .rdata:00404089 6d                               0x6d 'm'
                          .rdata:0040408a 61                               0x61 'a'
                          .rdata:0040408b 69                               0x69 'i'
                          .rdata:0040408c 6e                               0x6e 'n'
                          .rdata:0040408d 5f                               0x5f '_'
                          .rdata:0040408e 63                               0x63 'c'
                          .rdata:0040408f 6f                               0x6f 'o'
                          .rdata:00404090 6d                               0x6d 'm'
                          .rdata:00404091 6d                               0x6d 'm'
                          .rdata:00404092 61                               0x61 'a'
                          .rdata:00404093 6e                               0x6e 'n'
                          .rdata:00404094 64                               0x64 'd'
                          .rdata:00404095 5f                               0x5f '_'
                          .rdata:00404096 6c                               0x6c 'l'
                          .rdata:00404097 69                               0x69 'i'
                          .rdata:00404098 6e                               0x6e 'n'
                          .rdata:00404099 65                               0x65 'e'
                          .rdata:0040409a 00                               0x00 
                          .rdata:0040409b 00                               0x00 
                          .rdata:0040409c 38                               0x38 '8'
                          .rdata:0040409d 00                               0x00 
                          .rdata:0040409e 5f                               0x5f '_'
                          .rdata:0040409f 69                               0x69 'i'
                          .rdata:004040a0 6e                               0x6e 'n'
                          .rdata:004040a1 69                               0x69 'i'
                          .rdata:004040a2 74                               0x74 't'
                          .rdata:004040a3 74                               0x74 't'
                          .rdata:004040a4 65                               0x65 'e'
                          .rdata:004040a5 72                               0x72 'r'
                          .rdata:004040a6 6d                               0x6d 'm'
                          .rdata:004040a7 00                               0x00 
                          .rdata:004040a8 39                               0x39 '9'
                          .rdata:004040a9 00                               0x00 
                          .rdata:004040aa 5f                               0x5f '_'
                          .rdata:004040ab 69                               0x69 'i'
                          .rdata:004040ac 6e                               0x6e 'n'
                          .rdata:004040ad 69                               0x69 'i'
                          .rdata:004040ae 74                               0x74 't'
                          .rdata:004040af 74                               0x74 't'
                          .rdata:004040b0 65                               0x65 'e'
                          .rdata:004040b1 72                               0x72 'r'
                          .rdata:004040b2 6d                               0x6d 'm'
                          .rdata:004040b3 5f                               0x5f '_'
                          .rdata:004040b4 65                               0x65 'e'
                          .rdata:004040b5 00                               0x00 
                          .rdata:004040b6 58                               0x58 'X'
                          .rdata:004040b7 00                               0x00 
                          .rdata:004040b8 65                               0x65 'e'
                          .rdata:004040b9 78                               0x78 'x'
                          .rdata:004040ba 69                               0x69 'i'
                          .rdata:004040bb 74                               0x74 't'
                          .rdata:004040bc 00                               0x00 
                          .rdata:004040bd 00                               0x00 
                          .rdata:004040be 25                               0x25 '%'
                          .rdata:004040bf 00                               0x00 
                          .rdata:004040c0 5f                               0x5f '_'
                          .rdata:004040c1 65                               0x65 'e'
                          .rdata:004040c2 78                               0x78 'x'
                          .rdata:004040c3 69                               0x69 'i'
                          .rdata:004040c4 74                               0x74 't'
                          .rdata:004040c5 00                               0x00 
                          .rdata:004040c6 54                               0x54 'T'
                          .rdata:004040c7 00                               0x00 
                          .rdata:004040c8 5f                               0x5f '_'
                          .rdata:004040c9 73                               0x73 's'
                          .rdata:004040ca 65                               0x65 'e'
                          .rdata:004040cb 74                               0x74 't'
                          .rdata:004040cc 5f                               0x5f '_'
                          .rdata:004040cd 66                               0x66 'f'
                          .rdata:004040ce 6d                               0x6d 'm'
                          .rdata:004040cf 6f                               0x6f 'o'
                          .rdata:004040d0 64                               0x64 'd'
                          .rdata:004040d1 65                               0x65 'e'
                          .rdata:004040d2 00                               0x00 
                          .rdata:004040d3 00                               0x00 
                          .rdata:004040d4 17                               0x17 
                          .rdata:004040d5 00                               0x00 
                          .rdata:004040d6 5f                               0x5f '_'
                          .rdata:004040d7 63                               0x63 'c'
                          .rdata:004040d8 65                               0x65 'e'
                          .rdata:004040d9 78                               0x78 'x'
                          .rdata:004040da 69                               0x69 'i'
                          .rdata:004040db 74                               0x74 't'
                          .rdata:004040dc 00                               0x00 
                          .rdata:004040dd 00                               0x00 
                          .rdata:004040de 16                               0x16 
                          .rdata:004040df 00                               0x00 
                          .rdata:004040e0 5f                               0x5f '_'
                          .rdata:004040e1 63                               0x63 'c'
                          .rdata:004040e2 5f                               0x5f '_'
                          .rdata:004040e3 65                               0x65 'e'
                          .rdata:004040e4 78                               0x78 'x'
                          .rdata:004040e5 69                               0x69 'i'
                          .rdata:004040e6 74                               0x74 't'
                          .rdata:004040e7 00                               0x00 
                          .rdata:004040e8 3f                               0x3f '?'
                          .rdata:004040e9 00                               0x00 
                          .rdata:004040ea 5f                               0x5f '_'
                          .rdata:004040eb 72                               0x72 'r'
                          .rdata:004040ec 65                               0x65 'e'
                          .rdata:004040ed 67                               0x67 'g'
                          .rdata:004040ee 69                               0x69 'i'
                          .rdata:004040ef 73                               0x73 's'
                          .rdata:004040f0 74                               0x74 't'
                          .rdata:004040f1 65                               0x65 'e'
                          .rdata:004040f2 72                               0x72 'r'
                          .rdata:004040f3 5f                               0x5f '_'
                          .rdata:004040f4 74                               0x74 't'
                          .rdata:004040f5 68                               0x68 'h'
                          .rdata:004040f6 72                               0x72 'r'
                          .rdata:004040f7 65                               0x65 'e'
                          .rdata:004040f8 61                               0x61 'a'
                          .rdata:004040f9 64                               0x64 'd'
                          .rdata:004040fa 5f                               0x5f '_'
                          .rdata:004040fb 6c                               0x6c 'l'
                          .rdata:004040fc 6f                               0x6f 'o'
                          .rdata:004040fd 63                               0x63 'c'
                          .rdata:004040fe 61                               0x61 'a'
                          .rdata:004040ff 6c                               0x6c 'l'
                          .rdata:00404100 5f                               0x5f '_'
                          .rdata:00404101 65                               0x65 'e'
                          .rdata:00404102 78                               0x78 'x'
                          .rdata:00404103 65                               0x65 'e'
                          .rdata:00404104 5f                               0x5f '_'
                          .rdata:00404105 61                               0x61 'a'
                          .rdata:00404106 74                               0x74 't'
                          .rdata:00404107 65                               0x65 'e'
                          .rdata:00404108 78                               0x78 'x'
                          .rdata:00404109 69                               0x69 'i'
                          .rdata:0040410a 74                               0x74 't'
                          .rdata:0040410b 5f                               0x5f '_'
                          .rdata:0040410c 63                               0x63 'c'
                          .rdata:0040410d 61                               0x61 'a'
                          .rdata:0040410e 6c                               0x6c 'l'
                          .rdata:0040410f 6c                               0x6c 'l'
                          .rdata:00404110 62                               0x62 'b'
                          .rdata:00404111 61                               0x61 'a'
                          .rdata:00404112 63                               0x63 'c'
                          .rdata:00404113 6b                               0x6b 'k'
                          .rdata:00404114 00                               0x00 
                          .rdata:00404115 00                               0x00 
                          .rdata:00404116 08                               0x08 
                          .rdata:00404117 00                               0x00 
                          .rdata:00404118 5f                               0x5f '_'
                          .rdata:00404119 63                               0x63 'c'
                          .rdata:0040411a 6f                               0x6f 'o'
                          .rdata:0040411b 6e                               0x6e 'n'
                          .rdata:0040411c 66                               0x66 'f'
                          .rdata:0040411d 69                               0x69 'i'
                          .rdata:0040411e 67                               0x67 'g'
                          .rdata:0040411f 74                               0x74 't'
                          .rdata:00404120 68                               0x68 'h'
                          .rdata:00404121 72                               0x72 'r'
                          .rdata:00404122 65                               0x65 'e'
                          .rdata:00404123 61                               0x61 'a'
                          .rdata:00404124 64                               0x64 'd'
                          .rdata:00404125 6c                               0x6c 'l'
                          .rdata:00404126 6f                               0x6f 'o'
                          .rdata:00404127 63                               0x63 'c'
                          .rdata:00404128 61                               0x61 'a'
                          .rdata:00404129 6c                               0x6c 'l'
                          .rdata:0040412a 65                               0x65 'e'
                          .rdata:0040412b 00                               0x00 
                          .rdata:0040412c 16                               0x16 
                          .rdata:0040412d 00                               0x00 
                          .rdata:0040412e 5f                               0x5f '_'
                          .rdata:0040412f 73                               0x73 's'
                          .rdata:00404130 65                               0x65 'e'
                          .rdata:00404131 74                               0x74 't'
                          .rdata:00404132 5f                               0x5f '_'
                          .rdata:00404133 6e                               0x6e 'n'
                          .rdata:00404134 65                               0x65 'e'
                          .rdata:00404135 77                               0x77 'w'
                          .rdata:00404136 5f                               0x5f '_'
                          .rdata:00404137 6d                               0x6d 'm'
                          .rdata:00404138 6f                               0x6f 'o'
                          .rdata:00404139 64                               0x64 'd'
                          .rdata:0040413a 65                               0x65 'e'
                          .rdata:0040413b 00                               0x00 
                          .rdata:0040413c 01                               0x01 
                          .rdata:0040413d 00                               0x00 
                          .rdata:0040413e 5f                               0x5f '_'
                          .rdata:0040413f 5f                               0x5f '_'
                          .rdata:00404140 70                               0x70 'p'
                          .rdata:00404141 5f                               0x5f '_'
                          .rdata:00404142 5f                               0x5f '_'
                          .rdata:00404143 63                               0x63 'c'
                          .rdata:00404144 6f                               0x6f 'o'
                          .rdata:00404145 6d                               0x6d 'm'
                          .rdata:00404146 6d                               0x6d 'm'
                          .rdata:00404147 6f                               0x6f 'o'
                          .rdata:00404148 64                               0x64 'd'
                          .rdata:00404149 65                               0x65 'e'
                          .rdata:0040414a 00                               0x00 
                          .rdata:0040414b 00                               0x00 
                          .rdata:0040414c 36                               0x36 '6'
                          .rdata:0040414d 00                               0x00 
                          .rdata:0040414e 5f                               0x5f '_'
                          .rdata:0040414f 69                               0x69 'i'
                          .rdata:00404150 6e                               0x6e 'n'
                          .rdata:00404151 69                               0x69 'i'
                          .rdata:00404152 74                               0x74 't'
                          .rdata:00404153 69                               0x69 'i'
                          .rdata:00404154 61                               0x61 'a'
                          .rdata:00404155 6c                               0x6c 'l'
                          .rdata:00404156 69                               0x69 'i'
                          .rdata:00404157 7a                               0x7a 'z'
                          .rdata:00404158 65                               0x65 'e'
                          .rdata:00404159 5f                               0x5f '_'
                          .rdata:0040415a 6f                               0x6f 'o'
                          .rdata:0040415b 6e                               0x6e 'n'
                          .rdata:0040415c 65                               0x65 'e'
                          .rdata:0040415d 78                               0x78 'x'
                          .rdata:0040415e 69                               0x69 'i'
                          .rdata:0040415f 74                               0x74 't'
                          .rdata:00404160 5f                               0x5f '_'
                          .rdata:00404161 74                               0x74 't'
                          .rdata:00404162 61                               0x61 'a'
                          .rdata:00404163 62                               0x62 'b'
                          .rdata:00404164 6c                               0x6c 'l'
                          .rdata:00404165 65                               0x65 'e'
                          .rdata:00404166 00                               0x00 
                          .rdata:00404167 00                               0x00 
                          .rdata:00404168 3e                               0x3e '>'
                          .rdata:00404169 00                               0x00 
                          .rdata:0040416a 5f                               0x5f '_'
                          .rdata:0040416b 72                               0x72 'r'
                          .rdata:0040416c 65                               0x65 'e'
                          .rdata:0040416d 67                               0x67 'g'
                          .rdata:0040416e 69                               0x69 'i'
                          .rdata:0040416f 73                               0x73 's'
                          .rdata:00404170 74                               0x74 't'
                          .rdata:00404171 65                               0x65 'e'
                          .rdata:00404172 72                               0x72 'r'
                          .rdata:00404173 5f                               0x5f '_'
                          .rdata:00404174 6f                               0x6f 'o'
                          .rdata:00404175 6e                               0x6e 'n'
                          .rdata:00404176 65                               0x65 'e'
                          .rdata:00404177 78                               0x78 'x'
                          .rdata:00404178 69                               0x69 'i'
                          .rdata:00404179 74                               0x74 't'
                          .rdata:0040417a 5f                               0x5f '_'
                          .rdata:0040417b 66                               0x66 'f'
                          .rdata:0040417c 75                               0x75 'u'
                          .rdata:0040417d 6e                               0x6e 'n'
                          .rdata:0040417e 63                               0x63 'c'
                          .rdata:0040417f 74                               0x74 't'
                          .rdata:00404180 69                               0x69 'i'
                          .rdata:00404181 6f                               0x6f 'o'
                          .rdata:00404182 6e                               0x6e 'n'
                          .rdata:00404183 00                               0x00 
                          .rdata:00404184 1f                               0x1f 
                          .rdata:00404185 00                               0x00 
                          .rdata:00404186 5f                               0x5f '_'
                          .rdata:00404187 63                               0x63 'c'
                          .rdata:00404188 72                               0x72 'r'
                          .rdata:00404189 74                               0x74 't'
                          .rdata:0040418a 5f                               0x5f '_'
                          .rdata:0040418b 61                               0x61 'a'
                          .rdata:0040418c 74                               0x74 't'
                          .rdata:0040418d 65                               0x65 'e'
                          .rdata:0040418e 78                               0x78 'x'
                          .rdata:0040418f 69                               0x69 'i'
                          .rdata:00404190 74                               0x74 't'
                          .rdata:00404191 00                               0x00 
                          .rdata:00404192 1d                               0x1d 
                          .rdata:00404193 00                               0x00 
                          .rdata:00404194 5f                               0x5f '_'
                          .rdata:00404195 63                               0x63 'c'
                          .rdata:00404196 6f                               0x6f 'o'
                          .rdata:00404197 6e                               0x6e 'n'
                          .rdata:00404198 74                               0x74 't'
                          .rdata:00404199 72                               0x72 'r'
                          .rdata:0040419a 6f                               0x6f 'o'
                          .rdata:0040419b 6c                               0x6c 'l'
                          .rdata:0040419c 66                               0x66 'f'
                          .rdata:0040419d 70                               0x70 'p'
                          .rdata:0040419e 5f                               0x5f '_'
                          .rdata:0040419f 73                               0x73 's'
                          .rdata:004041a0 00                               0x00 
                          .rdata:004041a1 00                               0x00 
                          .rdata:004041a2 6a                               0x6a 'j'
                          .rdata:004041a3 00                               0x00 
                          .rdata:004041a4 74                               0x74 't'
                          .rdata:004041a5 65                               0x65 'e'
                          .rdata:004041a6 72                               0x72 'r'
                          .rdata:004041a7 6d                               0x6d 'm'
                          .rdata:004041a8 69                               0x69 'i'
                          .rdata:004041a9 6e                               0x6e 'n'
                          .rdata:004041aa 61                               0x61 'a'
                          .rdata:004041ab 74                               0x74 't'
                          .rdata:004041ac 65                               0x65 'e'
                          .rdata:004041ad 00                               0x00 
                          .rdata:004041ae 61                               0x61 'a'
                          .rdata:004041af 70                               0x70 'p'
                          .rdata:004041b0 69                               0x69 'i'
                          .rdata:004041b1 2d                               0x2d '-'
                          .rdata:004041b2 6d                               0x6d 'm'
                          .rdata:004041b3 73                               0x73 's'
                          .rdata:004041b4 2d                               0x2d '-'
                          .rdata:004041b5 77                               0x77 'w'
                          .rdata:004041b6 69                               0x69 'i'
                          .rdata:004041b7 6e                               0x6e 'n'
                          .rdata:004041b8 2d                               0x2d '-'
                          .rdata:004041b9 63                               0x63 'c'
                          .rdata:004041ba 72                               0x72 'r'
                          .rdata:004041bb 74                               0x74 't'
                          .rdata:004041bc 2d                               0x2d '-'
                          .rdata:004041bd 63                               0x63 'c'
                          .rdata:004041be 6f                               0x6f 'o'
                          .rdata:004041bf 6e                               0x6e 'n'
                          .rdata:004041c0 76                               0x76 'v'
                          .rdata:004041c1 65                               0x65 'e'
                          .rdata:004041c2 72                               0x72 'r'
                          .rdata:004041c3 74                               0x74 't'
                          .rdata:004041c4 2d                               0x2d '-'
                          .rdata:004041c5 6c                               0x6c 'l'
                          .rdata:004041c6 31                               0x31 '1'
                          .rdata:004041c7 2d                               0x2d '-'
                          .rdata:004041c8 31                               0x31 '1'
                          .rdata:004041c9 2d                               0x2d '-'
                          .rdata:004041ca 30                               0x30 '0'
                          .rdata:004041cb 2e                               0x2e '.'
                          .rdata:004041cc 64                               0x64 'd'
                          .rdata:004041cd 6c                               0x6c 'l'
                          .rdata:004041ce 6c                               0x6c 'l'
                          .rdata:004041cf 00                               0x00 
                          .rdata:004041d0 61                               0x61 'a'
                          .rdata:004041d1 70                               0x70 'p'
                          .rdata:004041d2 69                               0x69 'i'
                          .rdata:004041d3 2d                               0x2d '-'
                          .rdata:004041d4 6d                               0x6d 'm'
                          .rdata:004041d5 73                               0x73 's'
                          .rdata:004041d6 2d                               0x2d '-'
                          .rdata:004041d7 77                               0x77 'w'
                          .rdata:004041d8 69                               0x69 'i'
                          .rdata:004041d9 6e                               0x6e 'n'
                          .rdata:004041da 2d                               0x2d '-'
                          .rdata:004041db 63                               0x63 'c'
                          .rdata:004041dc 72                               0x72 'r'
                          .rdata:004041dd 74                               0x74 't'
                          .rdata:004041de 2d                               0x2d '-'
                          .rdata:004041df 72                               0x72 'r'
                          .rdata:004041e0 75                               0x75 'u'
                          .rdata:004041e1 6e                               0x6e 'n'
                          .rdata:004041e2 74                               0x74 't'
                          .rdata:004041e3 69                               0x69 'i'
                          .rdata:004041e4 6d                               0x6d 'm'
                          .rdata:004041e5 65                               0x65 'e'
                          .rdata:004041e6 2d                               0x2d '-'
                          .rdata:004041e7 6c                               0x6c 'l'
                          .rdata:004041e8 31                               0x31 '1'
                          .rdata:004041e9 2d                               0x2d '-'
                          .rdata:004041ea 31                               0x31 '1'
                          .rdata:004041eb 2d                               0x2d '-'
                          .rdata:004041ec 30                               0x30 '0'
                          .rdata:004041ed 2e                               0x2e '.'
                          .rdata:004041ee 64                               0x64 'd'
                          .rdata:004041ef 6c                               0x6c 'l'
                          .rdata:004041f0 6c                               0x6c 'l'
                          .rdata:004041f1 00                               0x00 
                          .rdata:004041f2 61                               0x61 'a'
                          .rdata:004041f3 70                               0x70 'p'
                          .rdata:004041f4 69                               0x69 'i'
                          .rdata:004041f5 2d                               0x2d '-'
                          .rdata:004041f6 6d                               0x6d 'm'
                          .rdata:004041f7 73                               0x73 's'
                          .rdata:004041f8 2d                               0x2d '-'
                          .rdata:004041f9 77                               0x77 'w'
                          .rdata:004041fa 69                               0x69 'i'
                          .rdata:004041fb 6e                               0x6e 'n'
                          .rdata:004041fc 2d                               0x2d '-'
                          .rdata:004041fd 63                               0x63 'c'
                          .rdata:004041fe 72                               0x72 'r'
                          .rdata:004041ff 74                               0x74 't'
                          .rdata:00404200 2d                               0x2d '-'
                          .rdata:00404201 6d                               0x6d 'm'
                          .rdata:00404202 61                               0x61 'a'
                          .rdata:00404203 74                               0x74 't'
                          .rdata:00404204 68                               0x68 'h'
                          .rdata:00404205 2d                               0x2d '-'
                          .rdata:00404206 6c                               0x6c 'l'
                          .rdata:00404207 31                               0x31 '1'
                          .rdata:00404208 2d                               0x2d '-'
                          .rdata:00404209 31                               0x31 '1'
                          .rdata:0040420a 2d                               0x2d '-'
                          .rdata:0040420b 30                               0x30 '0'
                          .rdata:0040420c 2e                               0x2e '.'
                          .rdata:0040420d 64                               0x64 'd'
                          .rdata:0040420e 6c                               0x6c 'l'
                          .rdata:0040420f 6c                               0x6c 'l'
                          .rdata:00404210 00                               0x00 
                          .rdata:00404211 00                               0x00 
                          .rdata:00404212 61                               0x61 'a'
                          .rdata:00404213 70                               0x70 'p'
                          .rdata:00404214 69                               0x69 'i'
                          .rdata:00404215 2d                               0x2d '-'
                          .rdata:00404216 6d                               0x6d 'm'
                          .rdata:00404217 73                               0x73 's'
                          .rdata:00404218 2d                               0x2d '-'
                          .rdata:00404219 77                               0x77 'w'
                          .rdata:0040421a 69                               0x69 'i'
                          .rdata:0040421b 6e                               0x6e 'n'
                          .rdata:0040421c 2d                               0x2d '-'
                          .rdata:0040421d 63                               0x63 'c'
                          .rdata:0040421e 72                               0x72 'r'
                          .rdata:0040421f 74                               0x74 't'
                          .rdata:00404220 2d                               0x2d '-'
                          .rdata:00404221 73                               0x73 's'
                          .rdata:00404222 74                               0x74 't'
                          .rdata:00404223 64                               0x64 'd'
                          .rdata:00404224 69                               0x69 'i'
                          .rdata:00404225 6f                               0x6f 'o'
                          .rdata:00404226 2d                               0x2d '-'
                          .rdata:00404227 6c                               0x6c 'l'
                          .rdata:00404228 31                               0x31 '1'
                          .rdata:00404229 2d                               0x2d '-'
                          .rdata:0040422a 31                               0x31 '1'
                          .rdata:0040422b 2d                               0x2d '-'
                          .rdata:0040422c 30                               0x30 '0'
                          .rdata:0040422d 2e                               0x2e '.'
                          .rdata:0040422e 64                               0x64 'd'
                          .rdata:0040422f 6c                               0x6c 'l'
                          .rdata:00404230 6c                               0x6c 'l'
                          .rdata:00404231 00                               0x00 
                          .rdata:00404232 61                               0x61 'a'
                          .rdata:00404233 70                               0x70 'p'
                          .rdata:00404234 69                               0x69 'i'
                          .rdata:00404235 2d                               0x2d '-'
                          .rdata:00404236 6d                               0x6d 'm'
                          .rdata:00404237 73                               0x73 's'
                          .rdata:00404238 2d                               0x2d '-'
                          .rdata:00404239 77                               0x77 'w'
                          .rdata:0040423a 69                               0x69 'i'
                          .rdata:0040423b 6e                               0x6e 'n'
                          .rdata:0040423c 2d                               0x2d '-'
                          .rdata:0040423d 63                               0x63 'c'
                          .rdata:0040423e 72                               0x72 'r'
                          .rdata:0040423f 74                               0x74 't'
                          .rdata:00404240 2d                               0x2d '-'
                          .rdata:00404241 6c                               0x6c 'l'
                          .rdata:00404242 6f                               0x6f 'o'
                          .rdata:00404243 63                               0x63 'c'
                          .rdata:00404244 61                               0x61 'a'
                          .rdata:00404245 6c                               0x6c 'l'
                          .rdata:00404246 65                               0x65 'e'
                          .rdata:00404247 2d                               0x2d '-'
                          .rdata:00404248 6c                               0x6c 'l'
                          .rdata:00404249 31                               0x31 '1'
                          .rdata:0040424a 2d                               0x2d '-'
                          .rdata:0040424b 31                               0x31 '1'
                          .rdata:0040424c 2d                               0x2d '-'
                          .rdata:0040424d 30                               0x30 '0'
                          .rdata:0040424e 2e                               0x2e '.'
                          .rdata:0040424f 64                               0x64 'd'
                          .rdata:00404250 6c                               0x6c 'l'
                          .rdata:00404251 6c                               0x6c 'l'
                          .rdata:00404252 00                               0x00 
                          .rdata:00404253 00                               0x00 
                          .rdata:00404254 61                               0x61 'a'
                          .rdata:00404255 70                               0x70 'p'
                          .rdata:00404256 69                               0x69 'i'
                          .rdata:00404257 2d                               0x2d '-'
                          .rdata:00404258 6d                               0x6d 'm'
                          .rdata:00404259 73                               0x73 's'
                          .rdata:0040425a 2d                               0x2d '-'
                          .rdata:0040425b 77                               0x77 'w'
                          .rdata:0040425c 69                               0x69 'i'
                          .rdata:0040425d 6e                               0x6e 'n'
                          .rdata:0040425e 2d                               0x2d '-'
                          .rdata:0040425f 63                               0x63 'c'
                          .rdata:00404260 72                               0x72 'r'
                          .rdata:00404261 74                               0x74 't'
                          .rdata:00404262 2d                               0x2d '-'
                          .rdata:00404263 68                               0x68 'h'
                          .rdata:00404264 65                               0x65 'e'
                          .rdata:00404265 61                               0x61 'a'
                          .rdata:00404266 70                               0x70 'p'
                          .rdata:00404267 2d                               0x2d '-'
                          .rdata:00404268 6c                               0x6c 'l'
                          .rdata:00404269 31                               0x31 '1'
                          .rdata:0040426a 2d                               0x2d '-'
                          .rdata:0040426b 31                               0x31 '1'
                          .rdata:0040426c 2d                               0x2d '-'
                          .rdata:0040426d 30                               0x30 '0'
                          .rdata:0040426e 2e                               0x2e '.'
                          .rdata:0040426f 64                               0x64 'd'
                          .rdata:00404270 6c                               0x6c 'l'
                          .rdata:00404271 6c                               0x6c 'l'
                          .rdata:00404272 00                               0x00 
                          .rdata:00404273 00                               0x00 
                          .rdata:00404274 82                               0x82 
                          .rdata:00404275 05                               0x05 
                          .rdata:00404276 55                               0x55 'U'
                          .rdata:00404277 6e                               0x6e 'n'
                          .rdata:00404278 68                               0x68 'h'
                          .rdata:00404279 61                               0x61 'a'
                          .rdata:0040427a 6e                               0x6e 'n'
                          .rdata:0040427b 64                               0x64 'd'
                          .rdata:0040427c 6c                               0x6c 'l'
                          .rdata:0040427d 65                               0x65 'e'
                          .rdata:0040427e 64                               0x64 'd'
                          .rdata:0040427f 45                               0x45 'E'
                          .rdata:00404280 78                               0x78 'x'
                          .rdata:00404281 63                               0x63 'c'
                          .rdata:00404282 65                               0x65 'e'
                          .rdata:00404283 70                               0x70 'p'
                          .rdata:00404284 74                               0x74 't'
                          .rdata:00404285 69                               0x69 'i'
                          .rdata:00404286 6f                               0x6f 'o'
                          .rdata:00404287 6e                               0x6e 'n'
                          .rdata:00404288 46                               0x46 'F'
                          .rdata:00404289 69                               0x69 'i'
                          .rdata:0040428a 6c                               0x6c 'l'
                          .rdata:0040428b 74                               0x74 't'
                          .rdata:0040428c 65                               0x65 'e'
                          .rdata:0040428d 72                               0x72 'r'
                          .rdata:0040428e 00                               0x00 
                          .rdata:0040428f 00                               0x00 
                          .rdata:00404290 43                               0x43 'C'
                          .rdata:00404291 05                               0x05 
                          .rdata:00404292 53                               0x53 'S'
                          .rdata:00404293 65                               0x65 'e'
                          .rdata:00404294 74                               0x74 't'
                          .rdata:00404295 55                               0x55 'U'
                          .rdata:00404296 6e                               0x6e 'n'
                          .rdata:00404297 68                               0x68 'h'
                          .rdata:00404298 61                               0x61 'a'
                          .rdata:00404299 6e                               0x6e 'n'
                          .rdata:0040429a 64                               0x64 'd'
                          .rdata:0040429b 6c                               0x6c 'l'
                          .rdata:0040429c 65                               0x65 'e'
                          .rdata:0040429d 64                               0x64 'd'
                          .rdata:0040429e 45                               0x45 'E'
                          .rdata:0040429f 78                               0x78 'x'
                          .rdata:004042a0 63                               0x63 'c'
                          .rdata:004042a1 65                               0x65 'e'
                          .rdata:004042a2 70                               0x70 'p'
                          .rdata:004042a3 74                               0x74 't'
                          .rdata:004042a4 69                               0x69 'i'
                          .rdata:004042a5 6f                               0x6f 'o'
                          .rdata:004042a6 6e                               0x6e 'n'
                          .rdata:004042a7 46                               0x46 'F'
                          .rdata:004042a8 69                               0x69 'i'
                          .rdata:004042a9 6c                               0x6c 'l'
                          .rdata:004042aa 74                               0x74 't'
                          .rdata:004042ab 65                               0x65 'e'
                          .rdata:004042ac 72                               0x72 'r'
                          .rdata:004042ad 00                               0x00 
                          .rdata:004042ae 09                               0x09 '	'
                          .rdata:004042af 02                               0x02 
                          .rdata:004042b0 47                               0x47 'G'
                          .rdata:004042b1 65                               0x65 'e'
                          .rdata:004042b2 74                               0x74 't'
                          .rdata:004042b3 43                               0x43 'C'
                          .rdata:004042b4 75                               0x75 'u'
                          .rdata:004042b5 72                               0x72 'r'
                          .rdata:004042b6 72                               0x72 'r'
                          .rdata:004042b7 65                               0x65 'e'
                          .rdata:004042b8 6e                               0x6e 'n'
                          .rdata:004042b9 74                               0x74 't'
                          .rdata:004042ba 50                               0x50 'P'
                          .rdata:004042bb 72                               0x72 'r'
                          .rdata:004042bc 6f                               0x6f 'o'
                          .rdata:004042bd 63                               0x63 'c'
                          .rdata:004042be 65                               0x65 'e'
                          .rdata:004042bf 73                               0x73 's'
                          .rdata:004042c0 73                               0x73 's'
                          .rdata:004042c1 00                               0x00 
                          .rdata:004042c2 61                               0x61 'a'
                          .rdata:004042c3 05                               0x05 
                          .rdata:004042c4 54                               0x54 'T'
                          .rdata:004042c5 65                               0x65 'e'
                          .rdata:004042c6 72                               0x72 'r'
                          .rdata:004042c7 6d                               0x6d 'm'
                          .rdata:004042c8 69                               0x69 'i'
                          .rdata:004042c9 6e                               0x6e 'n'
                          .rdata:004042ca 61                               0x61 'a'
                          .rdata:004042cb 74                               0x74 't'
                          .rdata:004042cc 65                               0x65 'e'
                          .rdata:004042cd 50                               0x50 'P'
                          .rdata:004042ce 72                               0x72 'r'
                          .rdata:004042cf 6f                               0x6f 'o'
                          .rdata:004042d0 63                               0x63 'c'
                          .rdata:004042d1 65                               0x65 'e'
                          .rdata:004042d2 73                               0x73 's'
                          .rdata:004042d3 73                               0x73 's'
                          .rdata:004042d4 00                               0x00 
                          .rdata:004042d5 00                               0x00 
                          .rdata:004042d6 6d                               0x6d 'm'
                          .rdata:004042d7 03                               0x03 
                          .rdata:004042d8 49                               0x49 'I'
                          .rdata:004042d9 73                               0x73 's'
                          .rdata:004042da 50                               0x50 'P'
                          .rdata:004042db 72                               0x72 'r'
                          .rdata:004042dc 6f                               0x6f 'o'
                          .rdata:004042dd 63                               0x63 'c'
                          .rdata:004042de 65                               0x65 'e'
                          .rdata:004042df 73                               0x73 's'
                          .rdata:004042e0 73                               0x73 's'
                          .rdata:004042e1 6f                               0x6f 'o'
                          .rdata:004042e2 72                               0x72 'r'
                          .rdata:004042e3 46                               0x46 'F'
                          .rdata:004042e4 65                               0x65 'e'
                          .rdata:004042e5 61                               0x61 'a'
                          .rdata:004042e6 74                               0x74 't'
                          .rdata:004042e7 75                               0x75 'u'
                          .rdata:004042e8 72                               0x72 'r'
                          .rdata:004042e9 65                               0x65 'e'
                          .rdata:004042ea 50                               0x50 'P'
                          .rdata:004042eb 72                               0x72 'r'
                          .rdata:004042ec 65                               0x65 'e'
                          .rdata:004042ed 73                               0x73 's'
                          .rdata:004042ee 65                               0x65 'e'
                          .rdata:004042ef 6e                               0x6e 'n'
                          .rdata:004042f0 74                               0x74 't'
                          .rdata:004042f1 00                               0x00 
                          .rdata:004042f2 0a                               0x0a '
'
                          .rdata:004042f3 02                               0x02 
                          .rdata:004042f4 47                               0x47 'G'
                          .rdata:004042f5 65                               0x65 'e'
                          .rdata:004042f6 74                               0x74 't'
                          .rdata:004042f7 43                               0x43 'C'
                          .rdata:004042f8 75                               0x75 'u'
                          .rdata:004042f9 72                               0x72 'r'
                          .rdata:004042fa 72                               0x72 'r'
                          .rdata:004042fb 65                               0x65 'e'
                          .rdata:004042fc 6e                               0x6e 'n'
                          .rdata:004042fd 74                               0x74 't'
                          .rdata:004042fe 50                               0x50 'P'
                          .rdata:004042ff 72                               0x72 'r'
                          .rdata:00404300 6f                               0x6f 'o'
                          .rdata:00404301 63                               0x63 'c'
                          .rdata:00404302 65                               0x65 'e'
                          .rdata:00404303 73                               0x73 's'
                          .rdata:00404304 73                               0x73 's'
                          .rdata:00404305 49                               0x49 'I'
                          .rdata:00404306 64                               0x64 'd'
                          .rdata:00404307 00                               0x00 
                          .rdata:00404308 0e                               0x0e 
                          .rdata:00404309 02                               0x02 
                          .rdata:0040430a 47                               0x47 'G'
                          .rdata:0040430b 65                               0x65 'e'
                          .rdata:0040430c 74                               0x74 't'
                          .rdata:0040430d 43                               0x43 'C'
                          .rdata:0040430e 75                               0x75 'u'
                          .rdata:0040430f 72                               0x72 'r'
                          .rdata:00404310 72                               0x72 'r'
                          .rdata:00404311 65                               0x65 'e'
                          .rdata:00404312 6e                               0x6e 'n'
                          .rdata:00404313 74                               0x74 't'
                          .rdata:00404314 54                               0x54 'T'
                          .rdata:00404315 68                               0x68 'h'
                          .rdata:00404316 72                               0x72 'r'
                          .rdata:00404317 65                               0x65 'e'
                          .rdata:00404318 61                               0x61 'a'
                          .rdata:00404319 64                               0x64 'd'
                          .rdata:0040431a 49                               0x49 'I'
                          .rdata:0040431b 64                               0x64 'd'
                          .rdata:0040431c 00                               0x00 
                          .rdata:0040431d 00                               0x00 
                          .rdata:0040431e d6                               0xd6 
                          .rdata:0040431f 02                               0x02 
                          .rdata:00404320 47                               0x47 'G'
                          .rdata:00404321 65                               0x65 'e'
                          .rdata:00404322 74                               0x74 't'
                          .rdata:00404323 53                               0x53 'S'
                          .rdata:00404324 79                               0x79 'y'
                          .rdata:00404325 73                               0x73 's'
                          .rdata:00404326 74                               0x74 't'
                          .rdata:00404327 65                               0x65 'e'
                          .rdata:00404328 6d                               0x6d 'm'
                          .rdata:00404329 54                               0x54 'T'
                          .rdata:0040432a 69                               0x69 'i'
                          .rdata:0040432b 6d                               0x6d 'm'
                          .rdata:0040432c 65                               0x65 'e'
                          .rdata:0040432d 41                               0x41 'A'
                          .rdata:0040432e 73                               0x73 's'
                          .rdata:0040432f 46                               0x46 'F'
                          .rdata:00404330 69                               0x69 'i'
                          .rdata:00404331 6c                               0x6c 'l'
                          .rdata:00404332 65                               0x65 'e'
                          .rdata:00404333 54                               0x54 'T'
                          .rdata:00404334 69                               0x69 'i'
                          .rdata:00404335 6d                               0x6d 'm'
                          .rdata:00404336 65                               0x65 'e'
                          .rdata:00404337 00                               0x00 
                          .rdata:00404338 4b                               0x4b 'K'
                          .rdata:00404339 03                               0x03 
                          .rdata:0040433a 49                               0x49 'I'
                          .rdata:0040433b 6e                               0x6e 'n'
                          .rdata:0040433c 69                               0x69 'i'
                          .rdata:0040433d 74                               0x74 't'
                          .rdata:0040433e 69                               0x69 'i'
                          .rdata:0040433f 61                               0x61 'a'
                          .rdata:00404340 6c                               0x6c 'l'
                          .rdata:00404341 69                               0x69 'i'
                          .rdata:00404342 7a                               0x7a 'z'
                          .rdata:00404343 65                               0x65 'e'
                          .rdata:00404344 53                               0x53 'S'
                          .rdata:00404345 4c                               0x4c 'L'
                          .rdata:00404346 69                               0x69 'i'
                          .rdata:00404347 73                               0x73 's'
                          .rdata:00404348 74                               0x74 't'
                          .rdata:00404349 48                               0x48 'H'
                          .rdata:0040434a 65                               0x65 'e'
                          .rdata:0040434b 61                               0x61 'a'
                          .rdata:0040434c 64                               0x64 'd'
                          .rdata:0040434d 00                               0x00 
                          .rdata:0040434e 67                               0x67 'g'
                          .rdata:0040434f 03                               0x03 
                          .rdata:00404350 49                               0x49 'I'
                          .rdata:00404351 73                               0x73 's'
                          .rdata:00404352 44                               0x44 'D'
                          .rdata:00404353 65                               0x65 'e'
                          .rdata:00404354 62                               0x62 'b'
                          .rdata:00404355 75                               0x75 'u'
                          .rdata:00404356 67                               0x67 'g'
                          .rdata:00404357 67                               0x67 'g'
                          .rdata:00404358 65                               0x65 'e'
                          .rdata:00404359 72                               0x72 'r'
                          .rdata:0040435a 50                               0x50 'P'
                          .rdata:0040435b 72                               0x72 'r'
                          .rdata:0040435c 65                               0x65 'e'
                          .rdata:0040435d 73                               0x73 's'
                          .rdata:0040435e 65                               0x65 'e'
                          .rdata:0040435f 6e                               0x6e 'n'
                          .rdata:00404360 74                               0x74 't'
                          .rdata:00404361 00                               0x00 
                          .rdata:00404362 be                               0xbe 
                          .rdata:00404363 02                               0x02 
                          .rdata:00404364 47                               0x47 'G'
                          .rdata:00404365 65                               0x65 'e'
                          .rdata:00404366 74                               0x74 't'
                          .rdata:00404367 53                               0x53 'S'
                          .rdata:00404368 74                               0x74 't'
                          .rdata:00404369 61                               0x61 'a'
                          .rdata:0040436a 72                               0x72 'r'
                          .rdata:0040436b 74                               0x74 't'
                          .rdata:0040436c 75                               0x75 'u'
                          .rdata:0040436d 70                               0x70 'p'
                          .rdata:0040436e 49                               0x49 'I'
                          .rdata:0040436f 6e                               0x6e 'n'
                          .rdata:00404370 66                               0x66 'f'
                          .rdata:00404371 6f                               0x6f 'o'
                          .rdata:00404372 57                               0x57 'W'
                          .rdata:00404373 00                               0x00 
                          .rdata:00404374 67                               0x67 'g'
                          .rdata:00404375 02                               0x02 
                          .rdata:00404376 47                               0x47 'G'
                          .rdata:00404377 65                               0x65 'e'
                          .rdata:00404378 74                               0x74 't'
                          .rdata:00404379 4d                               0x4d 'M'
                          .rdata:0040437a 6f                               0x6f 'o'
                          .rdata:0040437b 64                               0x64 'd'
                          .rdata:0040437c 75                               0x75 'u'
                          .rdata:0040437d 6c                               0x6c 'l'
                          .rdata:0040437e 65                               0x65 'e'
                          .rdata:0040437f 48                               0x48 'H'
                          .rdata:00404380 61                               0x61 'a'
                          .rdata:00404381 6e                               0x6e 'n'
                          .rdata:00404382 64                               0x64 'd'
                          .rdata:00404383 6c                               0x6c 'l'
                          .rdata:00404384 65                               0x65 'e'
                          .rdata:00404385 57                               0x57 'W'
                          .rdata:00404386 00                               0x00 
                          .rdata:00404387 00                               0x00 
                          .rdata:00404388 40                               0x40 '@'
                          .rdata:00404389 00                               0x00 
                          .rdata:0040438a 5f                               0x5f '_'
                          .rdata:0040438b 65                               0x65 'e'
                          .rdata:0040438c 78                               0x78 'x'
                          .rdata:0040438d 63                               0x63 'c'
                          .rdata:0040438e 65                               0x65 'e'
                          .rdata:0040438f 70                               0x70 'p'
                          .rdata:00404390 74                               0x74 't'
                          .rdata:00404391 31                               0x31 '1'
                          .rdata:00404392 00                               0x00 
                          .rdata:00404393 00                               0x00 
                           .data:00405000 b1                               0xb1 
                           .data:00405001 19                               0x19 
                           .data:00405002 bf                               0xbf 
                           .data:00405003 44                               0x44 'D'
                           .data:00405004 4e                               0x4e 'N'
                           .data:00405005 e6                               0xe6 
                           .data:00405006 40                               0x40 '@'
                           .data:00405007 bb                               0xbb 
                           .data:00405008 ff                               0xff 
                           .data:00405009 ff                               0xff 
                           .data:0040500a ff                               0xff 
                           .data:0040500b ff                               0xff 
                           .data:0040500c 01                               0x01 
                           .data:0040500d 00                               0x00 
                           .data:0040500e 00                               0x00 
                           .data:0040500f 00                               0x00 
                           .data:00405010 01                               0x01 
                           .data:00405011 00                               0x00 
                           .data:00405012 00                               0x00 
                           .data:00405013 00                               0x00 
                           .data:00405014 01                               0x01 
                           .data:00405015 00                               0x00 
                           .data:00405016 00                               0x00 
                           .data:00405017 00                               0x00 
                           .data:00405018 00                               0x00 
                           .data:00405019 00                               0x00 
                           .data:0040501a c8                               0xc8 
                           .data:0040501b 42                               0x42 'B'
                           .data:0040501c 01                               0x01 
                           .data:0040501d 00                               0x00 
                           .data:0040501e 00                               0x00 
                           .data:0040501f 00                               0x00 
                           .data:00405020 31                               0x31 '1'
                           .data:00405021 33                               0x33 '3'
                           .data:00405022 00                               0x00 
                           .data:00405023 00                               0x00 
                           .data:00405024 00                               0x00 
                           .data:00405025 00                               0x00 
                           .data:00405026 00                               0x00 
                           .data:00405027 00                               0x00 
                           .data:00405028 00                               0x00 
                           .data:00405029 00                               0x00 
                           .data:0040502a 00                               0x00 
                           .data:0040502b 00                               0x00 
                           .data:0040502c 00                               0x00 
                           .data:0040502d 00                               0x00 
                           .data:0040502e 00                               0x00 
                           .data:0040502f 00                               0x00 
                           .data:00405030 75                               0x75 'u'
                           .data:00405031 98                               0x98 
                           .data:00405032 00                               0x00 
                           .data:00405033 00                               0x00 
                           .data:00405034 00                               0x00 
                           .data:00405035 00                               0x00 
                           .data:00405036 00                               0x00 
                           .data:00405037 00                               0x00 
                           .data:00405038 00                               0x00 
                           .data:00405039 00                               0x00 
                           .data:0040503a 00                               0x00 
                           .data:0040503b 00                               0x00 
                           .data:0040503c 00                               0x00 
                           .data:0040503d 00                               0x00 
                           .data:0040503e 00                               0x00 
                           .data:0040503f 00                               0x00 
                           .data:00405040 00                               0x00 
                           .data:00405041 00                               0x00 
                           .data:00405042 00                               0x00 
                           .data:00405043 00                               0x00 
                           .data:00405044 00                               0x00 
                           .data:00405045 00                               0x00 
                           .data:00405046 00                               0x00 
                           .data:00405047 00                               0x00 
                           .data:00405048 00                               0x00 
                           .data:00405049 00                               0x00 
                           .data:0040504a 00                               0x00 
                           .data:0040504b 00                               0x00 
                           .data:0040504c 00                               0x00 
                           .data:0040504d 00                               0x00 
                           .data:0040504e 00                               0x00 
                           .data:0040504f 00                               0x00 
                           .data:00405050 00                               0x00 
                           .data:00405051 00                               0x00 
                           .data:00405052 00                               0x00 
                           .data:00405053 00                               0x00 
                           .data:00405054 00                               0x00 
                           .data:00405055 00                               0x00 
                           .data:00405056 00                               0x00 
                           .data:00405057 00                               0x00 
                           .data:00405058 00                               0x00 
                           .data:00405059 00                               0x00 
                           .data:0040505a 00                               0x00 
                           .data:0040505b 00                               0x00 
                           .data:0040505c 00                               0x00 
                           .data:0040505d 00                               0x00 
                           .data:0040505e 00                               0x00 
                           .data:0040505f 00                               0x00 
                           .data:00405060 00                               0x00 
                           .data:00405061 00                               0x00 
                           .data:00405062 00                               0x00 
                           .data:00405063 00                               0x00 
                           .data:00405064 00                               0x00 
                           .data:00405065 00                               0x00 
                           .data:00405066 00                               0x00 
                           .data:00405067 00                               0x00 
                           .data:00405068 00                               0x00 
                           .data:00405069 00                               0x00 
                           .data:0040506a 00                               0x00 
                           .data:0040506b 00                               0x00 
                           .data:0040506c 00                               0x00 
                           .data:0040506d 00                               0x00 
                           .data:0040506e 00                               0x00 
                           .data:0040506f 00                               0x00 
                           .data:00405070 00                               0x00 
                           .data:00405071 00                               0x00 
                           .data:00405072 00                               0x00 
                           .data:00405073 00                               0x00 
                           .data:00405074 00                               0x00 
                           .data:00405075 00                               0x00 
                           .data:00405076 00                               0x00 
                           .data:00405077 00                               0x00 
                           .data:00405078 00                               0x00 
                           .data:00405079 00                               0x00 
                           .data:0040507a 00                               0x00 
                           .data:0040507b 00                               0x00 
                           .data:0040507c 00                               0x00 
                           .data:0040507d 00                               0x00 
                           .data:0040507e 00                               0x00 
                           .data:0040507f 00                               0x00 
                           .data:00405080 00                               0x00 
                           .data:00405081 00                               0x00 
                           .data:00405082 00                               0x00 
                           .data:00405083 00                               0x00 
                           .data:00405084 00                               0x00 
                           .data:00405085 00                               0x00 
                           .data:00405086 00                               0x00 
                           .data:00405087 00                               0x00 
                           .data:00405088 00                               0x00 
                           .data:00405089 00                               0x00 
                           .data:0040508a 00                               0x00 
                           .data:0040508b 00                               0x00 
                           .data:0040508c 00                               0x00 
                           .data:0040508d 00                               0x00 
                           .data:0040508e 00                               0x00 
                           .data:0040508f 00                               0x00 
                           .data:00405090 00                               0x00 
                           .data:00405091 00                               0x00 
                           .data:00405092 00                               0x00 
                           .data:00405093 00                               0x00 
                           .data:00405094 00                               0x00 
                           .data:00405095 00                               0x00 
                           .data:00405096 00                               0x00 
                           .data:00405097 00                               0x00 
                           .data:00405098 00                               0x00 
                           .data:00405099 00                               0x00 
                           .data:0040509a 00                               0x00 
                           .data:0040509b 00                               0x00 
                           .data:0040509c 00                               0x00 
                           .data:0040509d 00                               0x00 
                           .data:0040509e 00                               0x00 
                           .data:0040509f 00                               0x00 
                           .data:004050a0 00                               0x00 
                           .data:004050a1 00                               0x00 
                           .data:004050a2 00                               0x00 
                           .data:004050a3 00                               0x00 
                           .data:004050a4 00                               0x00 
                           .data:004050a5 00                               0x00 
                           .data:004050a6 00                               0x00 
                           .data:004050a7 00                               0x00 
                           .data:004050a8 00                               0x00 
                           .data:004050a9 00                               0x00 
                           .data:004050aa 00                               0x00 
                           .data:004050ab 00                               0x00 
                           .data:004050ac 00                               0x00 
                           .data:004050ad 00                               0x00 
                           .data:004050ae 00                               0x00 
                           .data:004050af 00                               0x00 
                           .data:004050b0 00                               0x00 
                           .data:004050b1 00                               0x00 
                           .data:004050b2 00                               0x00 
                           .data:004050b3 00                               0x00 
                           .data:004050b4 00                               0x00 
                           .data:004050b5 00                               0x00 
                           .data:004050b6 00                               0x00 
                           .data:004050b7 00                               0x00 
                           .data:004050b8 00                               0x00 
                           .data:004050b9 00                               0x00 
                           .data:004050ba 00                               0x00 
                           .data:004050bb 00                               0x00 
                           .data:004050bc 00                               0x00 
                           .data:004050bd 00                               0x00 
                           .data:004050be 00                               0x00 
                           .data:004050bf 00                               0x00 
                           .data:004050c0 00                               0x00 
                           .data:004050c1 00                               0x00 
                           .data:004050c2 00                               0x00 
                           .data:004050c3 00                               0x00 
                           .data:004050c4 00                               0x00 
                           .data:004050c5 00                               0x00 
                           .data:004050c6 00                               0x00 
                           .data:004050c7 00                               0x00 
                           .data:004050c8 00                               0x00 
                           .data:004050c9 00                               0x00 
                           .data:004050ca 00                               0x00 
                           .data:004050cb 00                               0x00 
                           .data:004050cc 00                               0x00 
                           .data:004050cd 00                               0x00 
                           .data:004050ce 00                               0x00 
                           .data:004050cf 00                               0x00 
                           .data:004050d0 00                               0x00 
                           .data:004050d1 00                               0x00 
                           .data:004050d2 00                               0x00 
                           .data:004050d3 00                               0x00 
                           .data:004050d4 00                               0x00 
                           .data:004050d5 00                               0x00 
                           .data:004050d6 00                               0x00 
                           .data:004050d7 00                               0x00 
                           .data:004050d8 00                               0x00 
                           .data:004050d9 00                               0x00 
                           .data:004050da 00                               0x00 
                           .data:004050db 00                               0x00 
                           .data:004050dc 00                               0x00 
                           .data:004050dd 00                               0x00 
                           .data:004050de 00                               0x00 
                           .data:004050df 00                               0x00 
                           .data:004050e0 00                               0x00 
                           .data:004050e1 00                               0x00 
                           .data:004050e2 00                               0x00 
                           .data:004050e3 00                               0x00 
                           .data:004050e4 00                               0x00 
                           .data:004050e5 00                               0x00 
                           .data:004050e6 00                               0x00 
                           .data:004050e7 00                               0x00 
                           .data:004050e8 00                               0x00 
                           .data:004050e9 00                               0x00 
                           .data:004050ea 00                               0x00 
                           .data:004050eb 00                               0x00 
                           .data:004050ec 00                               0x00 
                           .data:004050ed 00                               0x00 
                           .data:004050ee 00                               0x00 
                           .data:004050ef 00                               0x00 
                           .data:004050f0 00                               0x00 
                           .data:004050f1 00                               0x00 
                           .data:004050f2 00                               0x00 
                           .data:004050f3 00                               0x00 
                           .data:004050f4 00                               0x00 
                           .data:004050f5 00                               0x00 
                           .data:004050f6 00                               0x00 
                           .data:004050f7 00                               0x00 
                           .data:004050f8 00                               0x00 
                           .data:004050f9 00                               0x00 
                           .data:004050fa 00                               0x00 
                           .data:004050fb 00                               0x00 
                           .data:004050fc 00                               0x00 
                           .data:004050fd 00                               0x00 
                           .data:004050fe 00                               0x00 
                           .data:004050ff 00                               0x00 
                           .data:00405100 00                               0x00 
                           .data:00405101 00                               0x00 
                           .data:00405102 00                               0x00 
                           .data:00405103 00                               0x00 
                           .data:00405104 00                               0x00 
                           .data:00405105 00                               0x00 
                           .data:00405106 00                               0x00 
                           .data:00405107 00                               0x00 
                           .data:00405108 00                               0x00 
                           .data:00405109 00                               0x00 
                           .data:0040510a 00                               0x00 
                           .data:0040510b 00                               0x00 
                           .data:0040510c 00                               0x00 
                           .data:0040510d 00                               0x00 
                           .data:0040510e 00                               0x00 
                           .data:0040510f 00                               0x00 
                           .data:00405110 00                               0x00 
                           .data:00405111 00                               0x00 
                           .data:00405112 00                               0x00 
                           .data:00405113 00                               0x00 
                           .data:00405114 00                               0x00 
                           .data:00405115 00                               0x00 
                           .data:00405116 00                               0x00 
                           .data:00405117 00                               0x00 
                           .data:00405118 00                               0x00 
                           .data:00405119 00                               0x00 
                           .data:0040511a 00                               0x00 
                           .data:0040511b 00                               0x00 
                           .data:0040511c 00                               0x00 
                           .data:0040511d 00                               0x00 
                           .data:0040511e 00                               0x00 
                           .data:0040511f 00                               0x00 
                           .data:00405120 00                               0x00 
                           .data:00405121 00                               0x00 
                           .data:00405122 00                               0x00 
                           .data:00405123 00                               0x00 
                           .data:00405124 00                               0x00 
                           .data:00405125 00                               0x00 
                           .data:00405126 00                               0x00 
                           .data:00405127 00                               0x00 
                           .data:00405128 00                               0x00 
                           .data:00405129 00                               0x00 
                           .data:0040512a 00                               0x00 
                           .data:0040512b 00                               0x00 
                           .data:0040512c 00                               0x00 
                           .data:0040512d 00                               0x00 
                           .data:0040512e 00                               0x00 
                           .data:0040512f 00                               0x00 
                           .data:00405130 00                               0x00 
                           .data:00405131 00                               0x00 
                           .data:00405132 00                               0x00 
                           .data:00405133 00                               0x00 
                           .data:00405134 00                               0x00 
                           .data:00405135 00                               0x00 
                           .data:00405136 00                               0x00 
                           .data:00405137 00                               0x00 
                           .data:00405138 00                               0x00 
                           .data:00405139 00                               0x00 
                           .data:0040513a 00                               0x00 
                           .data:0040513b 00                               0x00 
                           .data:0040513c 00                               0x00 
                           .data:0040513d 00                               0x00 
                           .data:0040513e 00                               0x00 
                           .data:0040513f 00                               0x00 
                           .data:00405140 00                               0x00 
                           .data:00405141 00                               0x00 
                           .data:00405142 00                               0x00 
                           .data:00405143 00                               0x00 
                           .data:00405144 00                               0x00 
                           .data:00405145 00                               0x00 
                           .data:00405146 00                               0x00 
                           .data:00405147 00                               0x00 
                           .data:00405148 00                               0x00 
                           .data:00405149 00                               0x00 
                           .data:0040514a 00                               0x00 
                           .data:0040514b 00                               0x00 
                           .data:0040514c 00                               0x00 
                           .data:0040514d 00                               0x00 
                           .data:0040514e 00                               0x00 
                           .data:0040514f 00                               0x00 
                           .data:00405150 00                               0x00 
                           .data:00405151 00                               0x00 
                           .data:00405152 00                               0x00 
                           .data:00405153 00                               0x00 
                           .data:00405154 00                               0x00 
                           .data:00405155 00                               0x00 
                           .data:00405156 00                               0x00 
                           .data:00405157 00                               0x00 
                           .data:00405158 00                               0x00 
                           .data:00405159 00                               0x00 
                           .data:0040515a 00                               0x00 
                           .data:0040515b 00                               0x00 
                           .data:0040515c 00                               0x00 
                           .data:0040515d 00                               0x00 
                           .data:0040515e 00                               0x00 
                           .data:0040515f 00                               0x00 
                           .data:00405160 00                               0x00 
                           .data:00405161 00                               0x00 
                           .data:00405162 00                               0x00 
                           .data:00405163 00                               0x00 
                           .data:00405164 00                               0x00 
                           .data:00405165 00                               0x00 
                           .data:00405166 00                               0x00 
                           .data:00405167 00                               0x00 
                           .data:00405168 00                               0x00 
                           .data:00405169 00                               0x00 
                           .data:0040516a 00                               0x00 
                           .data:0040516b 00                               0x00 
                           .data:0040516c 00                               0x00 
                           .data:0040516d 00                               0x00 
                           .data:0040516e 00                               0x00 
                           .data:0040516f 00                               0x00 
                           .data:00405170 00                               0x00 
                           .data:00405171 00                               0x00 
                           .data:00405172 00                               0x00 
                           .data:00405173 00                               0x00 
                           .data:00405174 00                               0x00 
                           .data:00405175 00                               0x00 
                           .data:00405176 00                               0x00 
                           .data:00405177 00                               0x00 
                           .data:00405178 00                               0x00 
                           .data:00405179 00                               0x00 
                           .data:0040517a 00                               0x00 
                           .data:0040517b 00                               0x00 
                           .data:0040517c 00                               0x00 
                           .data:0040517d 00                               0x00 
                           .data:0040517e 00                               0x00 
                           .data:0040517f 00                               0x00 
                           .data:00405180 00                               0x00 
                           .data:00405181 00                               0x00 
                           .data:00405182 00                               0x00 
                           .data:00405183 00                               0x00 
                           .data:00405184 00                               0x00 
                           .data:00405185 00                               0x00 
                           .data:00405186 00                               0x00 
                           .data:00405187 00                               0x00 
                           .data:00405188 00                               0x00 
                           .data:00405189 00                               0x00 
                           .data:0040518a 00                               0x00 
                           .data:0040518b 00                               0x00 
                           .data:0040518c 00                               0x00 
                           .data:0040518d 00                               0x00 
                           .data:0040518e 00                               0x00 
                           .data:0040518f 00                               0x00 
                           .data:00405190 00                               0x00 
                           .data:00405191 00                               0x00 
                           .data:00405192 00                               0x00 
                           .data:00405193 00                               0x00 
                           .data:00405194 00                               0x00 
                           .data:00405195 00                               0x00 
                           .data:00405196 00                               0x00 
                           .data:00405197 00                               0x00 
                           .data:00405198 00                               0x00 
                           .data:00405199 00                               0x00 
                           .data:0040519a 00                               0x00 
                           .data:0040519b 00                               0x00 
                           .data:0040519c 00                               0x00 
                           .data:0040519d 00                               0x00 
                           .data:0040519e 00                               0x00 
                           .data:0040519f 00                               0x00 
                           .data:004051a0 00                               0x00 
                           .data:004051a1 00                               0x00 
                           .data:004051a2 00                               0x00 
                           .data:004051a3 00                               0x00 
                           .data:004051a4 00                               0x00 
                           .data:004051a5 00                               0x00 
                           .data:004051a6 00                               0x00 
                           .data:004051a7 00                               0x00 
                           .data:004051a8 00                               0x00 
                           .data:004051a9 00                               0x00 
                           .data:004051aa 00                               0x00 
                           .data:004051ab 00                               0x00 
                           .data:004051ac 00                               0x00 
                           .data:004051ad 00                               0x00 
                           .data:004051ae 00                               0x00 
                           .data:004051af 00                               0x00 
                           .data:004051b0 00                               0x00 
                           .data:004051b1 00                               0x00 
                           .data:004051b2 00                               0x00 
                           .data:004051b3 00                               0x00 
                           .data:004051b4 00                               0x00 
                           .data:004051b5 00                               0x00 
                           .data:004051b6 00                               0x00 
                           .data:004051b7 00                               0x00 
                           .data:004051b8 00                               0x00 
                           .data:004051b9 00                               0x00 
                           .data:004051ba 00                               0x00 
                           .data:004051bb 00                               0x00 
                           .data:004051bc 00                               0x00 
                           .data:004051bd 00                               0x00 
                           .data:004051be 00                               0x00 
                           .data:004051bf 00                               0x00 
                           .data:004051c0 00                               0x00 
                           .data:004051c1 00                               0x00 
                           .data:004051c2 00                               0x00 
                           .data:004051c3 00                               0x00 
                           .data:004051c4 00                               0x00 
                           .data:004051c5 00                               0x00 
                           .data:004051c6 00                               0x00 
                           .data:004051c7 00                               0x00 
                           .data:004051c8 00                               0x00 
                           .data:004051c9 00                               0x00 
                           .data:004051ca 00                               0x00 
                           .data:004051cb 00                               0x00 
                           .data:004051cc 00                               0x00 
                           .data:004051cd 00                               0x00 
                           .data:004051ce 00                               0x00 
                           .data:004051cf 00                               0x00 
                           .data:004051d0 00                               0x00 
                           .data:004051d1 00                               0x00 
                           .data:004051d2 00                               0x00 
                           .data:004051d3 00                               0x00 
                           .data:004051d4 00                               0x00 
                           .data:004051d5 00                               0x00 
                           .data:004051d6 00                               0x00 
                           .data:004051d7 00                               0x00 
                           .data:004051d8 00                               0x00 
                           .data:004051d9 00                               0x00 
                           .data:004051da 00                               0x00 
                           .data:004051db 00                               0x00 
                           .data:004051dc 00                               0x00 
                           .data:004051dd 00                               0x00 
                           .data:004051de 00                               0x00 
                           .data:004051df 00                               0x00 
                           .data:004051e0 00                               0x00 
                           .data:004051e1 00                               0x00 
                           .data:004051e2 00                               0x00 
                           .data:004051e3 00                               0x00 
                           .data:004051e4 00                               0x00 
                           .data:004051e5 00                               0x00 
                           .data:004051e6 00                               0x00 
                           .data:004051e7 00                               0x00 
                           .data:004051e8 00                               0x00 
                           .data:004051e9 00                               0x00 
                           .data:004051ea 00                               0x00 
                           .data:004051eb 00                               0x00 
                           .data:004051ec 00                               0x00 
                           .data:004051ed 00                               0x00 
                           .data:004051ee 00                               0x00 
                           .data:004051ef 00                               0x00 
                           .data:004051f0 00                               0x00 
                           .data:004051f1 00                               0x00 
                           .data:004051f2 00                               0x00 
                           .data:004051f3 00                               0x00 
                           .data:004051f4 00                               0x00 
                           .data:004051f5 00                               0x00 
                           .data:004051f6 00                               0x00 
                           .data:004051f7 00                               0x00 
                           .data:004051f8 00                               0x00 
                           .data:004051f9 00                               0x00 
                           .data:004051fa 00                               0x00 
                           .data:004051fb 00                               0x00 
                           .data:004051fc 00                               0x00 
                           .data:004051fd 00                               0x00 
                           .data:004051fe 00                               0x00 
                           .data:004051ff 00                               0x00 
                          .gfids:00406000 0a                               0x0a '
'
                          .gfids:00406001 00                               0x00 
                          .gfids:00406002 00                               0x00 
                          .gfids:00406003 00                               0x00 
                          .gfids:00406004 0d                               0x0d '
'
                          .gfids:00406005 00                               0x00 
                          .gfids:00406006 00                               0x00 
                          .gfids:00406007 00                               0x00 
                          .gfids:00406008 10                               0x10 
                          .gfids:00406009 00                               0x00 
                          .gfids:0040600a 00                               0x00 
                          .gfids:0040600b 00                               0x00 
                          .gfids:0040600c 45                               0x45 'E'
                          .gfids:0040600d 00                               0x00 
                          .gfids:0040600e 00                               0x00 
                          .gfids:0040600f 00                               0x00 
                          .gfids:00406010 72                               0x72 'r'
                          .gfids:00406011 00                               0x00 
                          .gfids:00406012 00                               0x00 
                          .gfids:00406013 00                               0x00 
                          .gfids:00406014 34                               0x34 '4'
                          .gfids:00406015 00                               0x00 
                          .gfids:00406016 00                               0x00 
                          .gfids:00406017 00                               0x00 
                          .gfids:00406018 0c                               0x0c ''
                          .gfids:00406019 00                               0x00 
                          .gfids:0040601a 00                               0x00 
                          .gfids:0040601b 00                               0x00 
                          .gfids:0040601c 0a                               0x0a '
'
                          .gfids:0040601d 00                               0x00 
                          .gfids:0040601e 00                               0x00 
                          .gfids:0040601f 00                               0x00 
                           .rsrc:00407000 00                               0x00 
                           .rsrc:00407001 00                               0x00 
                           .rsrc:00407002 00                               0x00 
                           .rsrc:00407003 00                               0x00 
                           .rsrc:00407004 00                               0x00 
                           .rsrc:00407005 00                               0x00 
                           .rsrc:00407006 00                               0x00 
                           .rsrc:00407007 00                               0x00 
                           .rsrc:00407008 00                               0x00 
                           .rsrc:00407009 00                               0x00 
                           .rsrc:0040700a 00                               0x00 
                           .rsrc:0040700b 00                               0x00 
                           .rsrc:0040700c 00                               0x00 
                           .rsrc:0040700d 00                               0x00 
                           .rsrc:0040700e 01                               0x01 
                           .rsrc:0040700f 00                               0x00 
                           .rsrc:00407010 18                               0x18 
                           .rsrc:00407011 00                               0x00 
                           .rsrc:00407012 00                               0x00 
                           .rsrc:00407013 00                               0x00 
                           .rsrc:00407014 18                               0x18 
                           .rsrc:00407015 00                               0x00 
                           .rsrc:00407016 00                               0x00 
                           .rsrc:00407017 80                               0x80 
                           .rsrc:00407018 00                               0x00 
                           .rsrc:00407019 00                               0x00 
                           .rsrc:0040701a 00                               0x00 
                           .rsrc:0040701b 00                               0x00 
                           .rsrc:0040701c 00                               0x00 
                           .rsrc:0040701d 00                               0x00 
                           .rsrc:0040701e 00                               0x00 
                           .rsrc:0040701f 00                               0x00 
                           .rsrc:00407020 00                               0x00 
                           .rsrc:00407021 00                               0x00 
                           .rsrc:00407022 00                               0x00 
                           .rsrc:00407023 00                               0x00 
                           .rsrc:00407024 00                               0x00 
                           .rsrc:00407025 00                               0x00 
                           .rsrc:00407026 01                               0x01 
                           .rsrc:00407027 00                               0x00 
                           .rsrc:00407028 01                               0x01 
                           .rsrc:00407029 00                               0x00 
                           .rsrc:0040702a 00                               0x00 
                           .rsrc:0040702b 00                               0x00 
                           .rsrc:0040702c 30                               0x30 '0'
                           .rsrc:0040702d 00                               0x00 
                           .rsrc:0040702e 00                               0x00 
                           .rsrc:0040702f 80                               0x80 
                           .rsrc:00407030 00                               0x00 
                           .rsrc:00407031 00                               0x00 
                           .rsrc:00407032 00                               0x00 
                           .rsrc:00407033 00                               0x00 
                           .rsrc:00407034 00                               0x00 
                           .rsrc:00407035 00                               0x00 
                           .rsrc:00407036 00                               0x00 
                           .rsrc:00407037 00                               0x00 
                           .rsrc:00407038 00                               0x00 
                           .rsrc:00407039 00                               0x00 
                           .rsrc:0040703a 00                               0x00 
                           .rsrc:0040703b 00                               0x00 
                           .rsrc:0040703c 00                               0x00 
                           .rsrc:0040703d 00                               0x00 
                           .rsrc:0040703e 01                               0x01 
                           .rsrc:0040703f 00                               0x00 
                           .rsrc:00407040 09                               0x09 '	'
                           .rsrc:00407041 04                               0x04 
                           .rsrc:00407042 00                               0x00 
                           .rsrc:00407043 00                               0x00 
                           .rsrc:00407044 48                               0x48 'H'
                           .rsrc:00407045 00                               0x00 
                           .rsrc:00407046 00                               0x00 
                           .rsrc:00407047 00                               0x00 
                           .rsrc:00407048 60                               0x60 '`'
                           .rsrc:00407049 70                               0x70 'p'
                           .rsrc:0040704a 00                               0x00 
                           .rsrc:0040704b 00                               0x00 
                           .rsrc:0040704c 7d                               0x7d '}'
                           .rsrc:0040704d 01                               0x01 
                           .rsrc:0040704e 00                               0x00 
                           .rsrc:0040704f 00                               0x00 
                           .rsrc:00407050 00                               0x00 
                           .rsrc:00407051 00                               0x00 
                           .rsrc:00407052 00                               0x00 
                           .rsrc:00407053 00                               0x00 
                           .rsrc:00407054 00                               0x00 
                           .rsrc:00407055 00                               0x00 
                           .rsrc:00407056 00                               0x00 
                           .rsrc:00407057 00                               0x00 
                           .rsrc:00407058 00                               0x00 
                           .rsrc:00407059 00                               0x00 
                           .rsrc:0040705a 00                               0x00 
                           .rsrc:0040705b 00                               0x00 
                           .rsrc:0040705c 00                               0x00 
                           .rsrc:0040705d 00                               0x00 
                           .rsrc:0040705e 00                               0x00 
                           .rsrc:0040705f 00                               0x00 
                           .rsrc:00407060 3c                               0x3c '<'
                           .rsrc:00407061 3f                               0x3f '?'
                           .rsrc:00407062 78                               0x78 'x'
                           .rsrc:00407063 6d                               0x6d 'm'
                           .rsrc:00407064 6c                               0x6c 'l'
                           .rsrc:00407065 20                               0x20 ' '
                           .rsrc:00407066 76                               0x76 'v'
                           .rsrc:00407067 65                               0x65 'e'
                           .rsrc:00407068 72                               0x72 'r'
                           .rsrc:00407069 73                               0x73 's'
                           .rsrc:0040706a 69                               0x69 'i'
                           .rsrc:0040706b 6f                               0x6f 'o'
                           .rsrc:0040706c 6e                               0x6e 'n'
                           .rsrc:0040706d 3d                               0x3d '='
                           .rsrc:0040706e 27                               0x27 '''
                           .rsrc:0040706f 31                               0x31 '1'
                           .rsrc:00407070 2e                               0x2e '.'
                           .rsrc:00407071 30                               0x30 '0'
                           .rsrc:00407072 27                               0x27 '''
                           .rsrc:00407073 20                               0x20 ' '
                           .rsrc:00407074 65                               0x65 'e'
                           .rsrc:00407075 6e                               0x6e 'n'
                           .rsrc:00407076 63                               0x63 'c'
                           .rsrc:00407077 6f                               0x6f 'o'
                           .rsrc:00407078 64                               0x64 'd'
                           .rsrc:00407079 69                               0x69 'i'
                           .rsrc:0040707a 6e                               0x6e 'n'
                           .rsrc:0040707b 67                               0x67 'g'
                           .rsrc:0040707c 3d                               0x3d '='
                           .rsrc:0040707d 27                               0x27 '''
                           .rsrc:0040707e 55                               0x55 'U'
                           .rsrc:0040707f 54                               0x54 'T'
                           .rsrc:00407080 46                               0x46 'F'
                           .rsrc:00407081 2d                               0x2d '-'
                           .rsrc:00407082 38                               0x38 '8'
                           .rsrc:00407083 27                               0x27 '''
                           .rsrc:00407084 20                               0x20 ' '
                           .rsrc:00407085 73                               0x73 's'
                           .rsrc:00407086 74                               0x74 't'
                           .rsrc:00407087 61                               0x61 'a'
                           .rsrc:00407088 6e                               0x6e 'n'
                           .rsrc:00407089 64                               0x64 'd'
                           .rsrc:0040708a 61                               0x61 'a'
                           .rsrc:0040708b 6c                               0x6c 'l'
                           .rsrc:0040708c 6f                               0x6f 'o'
                           .rsrc:0040708d 6e                               0x6e 'n'
                           .rsrc:0040708e 65                               0x65 'e'
                           .rsrc:0040708f 3d                               0x3d '='
                           .rsrc:00407090 27                               0x27 '''
                           .rsrc:00407091 79                               0x79 'y'
                           .rsrc:00407092 65                               0x65 'e'
                           .rsrc:00407093 73                               0x73 's'
                           .rsrc:00407094 27                               0x27 '''
                           .rsrc:00407095 3f                               0x3f '?'
                           .rsrc:00407096 3e                               0x3e '>'
                           .rsrc:00407097 0d                               0x0d '
'
                           .rsrc:00407098 0a                               0x0a '
'
                           .rsrc:00407099 3c                               0x3c '<'
                           .rsrc:0040709a 61                               0x61 'a'
                           .rsrc:0040709b 73                               0x73 's'
                           .rsrc:0040709c 73                               0x73 's'
                           .rsrc:0040709d 65                               0x65 'e'
                           .rsrc:0040709e 6d                               0x6d 'm'
                           .rsrc:0040709f 62                               0x62 'b'
                           .rsrc:004070a0 6c                               0x6c 'l'
                           .rsrc:004070a1 79                               0x79 'y'
                           .rsrc:004070a2 20                               0x20 ' '
                           .rsrc:004070a3 78                               0x78 'x'
                           .rsrc:004070a4 6d                               0x6d 'm'
                           .rsrc:004070a5 6c                               0x6c 'l'
                           .rsrc:004070a6 6e                               0x6e 'n'
                           .rsrc:004070a7 73                               0x73 's'
                           .rsrc:004070a8 3d                               0x3d '='
                           .rsrc:004070a9 27                               0x27 '''
                           .rsrc:004070aa 75                               0x75 'u'
                           .rsrc:004070ab 72                               0x72 'r'
                           .rsrc:004070ac 6e                               0x6e 'n'
                           .rsrc:004070ad 3a                               0x3a ':'
                           .rsrc:004070ae 73                               0x73 's'
                           .rsrc:004070af 63                               0x63 'c'
                           .rsrc:004070b0 68                               0x68 'h'
                           .rsrc:004070b1 65                               0x65 'e'
                           .rsrc:004070b2 6d                               0x6d 'm'
                           .rsrc:004070b3 61                               0x61 'a'
                           .rsrc:004070b4 73                               0x73 's'
                           .rsrc:004070b5 2d                               0x2d '-'
                           .rsrc:004070b6 6d                               0x6d 'm'
                           .rsrc:004070b7 69                               0x69 'i'
                           .rsrc:004070b8 63                               0x63 'c'
                           .rsrc:004070b9 72                               0x72 'r'
                           .rsrc:004070ba 6f                               0x6f 'o'
                           .rsrc:004070bb 73                               0x73 's'
                           .rsrc:004070bc 6f                               0x6f 'o'
                           .rsrc:004070bd 66                               0x66 'f'
                           .rsrc:004070be 74                               0x74 't'
                           .rsrc:004070bf 2d                               0x2d '-'
                           .rsrc:004070c0 63                               0x63 'c'
                           .rsrc:004070c1 6f                               0x6f 'o'
                           .rsrc:004070c2 6d                               0x6d 'm'
                           .rsrc:004070c3 3a                               0x3a ':'
                           .rsrc:004070c4 61                               0x61 'a'
                           .rsrc:004070c5 73                               0x73 's'
                           .rsrc:004070c6 6d                               0x6d 'm'
                           .rsrc:004070c7 2e                               0x2e '.'
                           .rsrc:004070c8 76                               0x76 'v'
                           .rsrc:004070c9 31                               0x31 '1'
                           .rsrc:004070ca 27                               0x27 '''
                           .rsrc:004070cb 20                               0x20 ' '
                           .rsrc:004070cc 6d                               0x6d 'm'
                           .rsrc:004070cd 61                               0x61 'a'
                           .rsrc:004070ce 6e                               0x6e 'n'
                           .rsrc:004070cf 69                               0x69 'i'
                           .rsrc:004070d0 66                               0x66 'f'
                           .rsrc:004070d1 65                               0x65 'e'
                           .rsrc:004070d2 73                               0x73 's'
                           .rsrc:004070d3 74                               0x74 't'
                           .rsrc:004070d4 56                               0x56 'V'
                           .rsrc:004070d5 65                               0x65 'e'
                           .rsrc:004070d6 72                               0x72 'r'
                           .rsrc:004070d7 73                               0x73 's'
                           .rsrc:004070d8 69                               0x69 'i'
                           .rsrc:004070d9 6f                               0x6f 'o'
                           .rsrc:004070da 6e                               0x6e 'n'
                           .rsrc:004070db 3d                               0x3d '='
                           .rsrc:004070dc 27                               0x27 '''
                           .rsrc:004070dd 31                               0x31 '1'
                           .rsrc:004070de 2e                               0x2e '.'
                           .rsrc:004070df 30                               0x30 '0'
                           .rsrc:004070e0 27                               0x27 '''
                           .rsrc:004070e1 3e                               0x3e '>'
                           .rsrc:004070e2 0d                               0x0d '
'
                           .rsrc:004070e3 0a                               0x0a '
'
                           .rsrc:004070e4 20                               0x20 ' '
                           .rsrc:004070e5 20                               0x20 ' '
                           .rsrc:004070e6 3c                               0x3c '<'
                           .rsrc:004070e7 74                               0x74 't'
                           .rsrc:004070e8 72                               0x72 'r'
                           .rsrc:004070e9 75                               0x75 'u'
                           .rsrc:004070ea 73                               0x73 's'
                           .rsrc:004070eb 74                               0x74 't'
                           .rsrc:004070ec 49                               0x49 'I'
                           .rsrc:004070ed 6e                               0x6e 'n'
                           .rsrc:004070ee 66                               0x66 'f'
                           .rsrc:004070ef 6f                               0x6f 'o'
                           .rsrc:004070f0 20                               0x20 ' '
                           .rsrc:004070f1 78                               0x78 'x'
                           .rsrc:004070f2 6d                               0x6d 'm'
                           .rsrc:004070f3 6c                               0x6c 'l'
                           .rsrc:004070f4 6e                               0x6e 'n'
                           .rsrc:004070f5 73                               0x73 's'
                           .rsrc:004070f6 3d                               0x3d '='
                           .rsrc:004070f7 22                               0x22 '"'
                           .rsrc:004070f8 75                               0x75 'u'
                           .rsrc:004070f9 72                               0x72 'r'
                           .rsrc:004070fa 6e                               0x6e 'n'
                           .rsrc:004070fb 3a                               0x3a ':'
                           .rsrc:004070fc 73                               0x73 's'
                           .rsrc:004070fd 63                               0x63 'c'
                           .rsrc:004070fe 68                               0x68 'h'
                           .rsrc:004070ff 65                               0x65 'e'
                           .rsrc:00407100 6d                               0x6d 'm'
                           .rsrc:00407101 61                               0x61 'a'
                           .rsrc:00407102 73                               0x73 's'
                           .rsrc:00407103 2d                               0x2d '-'
                           .rsrc:00407104 6d                               0x6d 'm'
                           .rsrc:00407105 69                               0x69 'i'
                           .rsrc:00407106 63                               0x63 'c'
                           .rsrc:00407107 72                               0x72 'r'
                           .rsrc:00407108 6f                               0x6f 'o'
                           .rsrc:00407109 73                               0x73 's'
                           .rsrc:0040710a 6f                               0x6f 'o'
                           .rsrc:0040710b 66                               0x66 'f'
                           .rsrc:0040710c 74                               0x74 't'
                           .rsrc:0040710d 2d                               0x2d '-'
                           .rsrc:0040710e 63                               0x63 'c'
                           .rsrc:0040710f 6f                               0x6f 'o'
                           .rsrc:00407110 6d                               0x6d 'm'
                           .rsrc:00407111 3a                               0x3a ':'
                           .rsrc:00407112 61                               0x61 'a'
                           .rsrc:00407113 73                               0x73 's'
                           .rsrc:00407114 6d                               0x6d 'm'
                           .rsrc:00407115 2e                               0x2e '.'
                           .rsrc:00407116 76                               0x76 'v'
                           .rsrc:00407117 33                               0x33 '3'
                           .rsrc:00407118 22                               0x22 '"'
                           .rsrc:00407119 3e                               0x3e '>'
                           .rsrc:0040711a 0d                               0x0d '
'
                           .rsrc:0040711b 0a                               0x0a '
'
                           .rsrc:0040711c 20                               0x20 ' '
                           .rsrc:0040711d 20                               0x20 ' '
                           .rsrc:0040711e 20                               0x20 ' '
                           .rsrc:0040711f 20                               0x20 ' '
                           .rsrc:00407120 3c                               0x3c '<'
                           .rsrc:00407121 73                               0x73 's'
                           .rsrc:00407122 65                               0x65 'e'
                           .rsrc:00407123 63                               0x63 'c'
                           .rsrc:00407124 75                               0x75 'u'
                           .rsrc:00407125 72                               0x72 'r'
                           .rsrc:00407126 69                               0x69 'i'
                           .rsrc:00407127 74                               0x74 't'
                           .rsrc:00407128 79                               0x79 'y'
                           .rsrc:00407129 3e                               0x3e '>'
                           .rsrc:0040712a 0d                               0x0d '
'
                           .rsrc:0040712b 0a                               0x0a '
'
                           .rsrc:0040712c 20                               0x20 ' '
                           .rsrc:0040712d 20                               0x20 ' '
                           .rsrc:0040712e 20                               0x20 ' '
                           .rsrc:0040712f 20                               0x20 ' '
                           .rsrc:00407130 20                               0x20 ' '
                           .rsrc:00407131 20                               0x20 ' '
                           .rsrc:00407132 3c                               0x3c '<'
                           .rsrc:00407133 72                               0x72 'r'
                           .rsrc:00407134 65                               0x65 'e'
                           .rsrc:00407135 71                               0x71 'q'
                           .rsrc:00407136 75                               0x75 'u'
                           .rsrc:00407137 65                               0x65 'e'
                           .rsrc:00407138 73                               0x73 's'
                           .rsrc:00407139 74                               0x74 't'
                           .rsrc:0040713a 65                               0x65 'e'
                           .rsrc:0040713b 64                               0x64 'd'
                           .rsrc:0040713c 50                               0x50 'P'
                           .rsrc:0040713d 72                               0x72 'r'
                           .rsrc:0040713e 69                               0x69 'i'
                           .rsrc:0040713f 76                               0x76 'v'
                           .rsrc:00407140 69                               0x69 'i'
                           .rsrc:00407141 6c                               0x6c 'l'
                           .rsrc:00407142 65                               0x65 'e'
                           .rsrc:00407143 67                               0x67 'g'
                           .rsrc:00407144 65                               0x65 'e'
                           .rsrc:00407145 73                               0x73 's'
                           .rsrc:00407146 3e                               0x3e '>'
                           .rsrc:00407147 0d                               0x0d '
'
                           .rsrc:00407148 0a                               0x0a '
'
                           .rsrc:00407149 20                               0x20 ' '
                           .rsrc:0040714a 20                               0x20 ' '
                           .rsrc:0040714b 20                               0x20 ' '
                           .rsrc:0040714c 20                               0x20 ' '
                           .rsrc:0040714d 20                               0x20 ' '
                           .rsrc:0040714e 20                               0x20 ' '
                           .rsrc:0040714f 20                               0x20 ' '
                           .rsrc:00407150 20                               0x20 ' '
                           .rsrc:00407151 3c                               0x3c '<'
                           .rsrc:00407152 72                               0x72 'r'
                           .rsrc:00407153 65                               0x65 'e'
                           .rsrc:00407154 71                               0x71 'q'
                           .rsrc:00407155 75                               0x75 'u'
                           .rsrc:00407156 65                               0x65 'e'
                           .rsrc:00407157 73                               0x73 's'
                           .rsrc:00407158 74                               0x74 't'
                           .rsrc:00407159 65                               0x65 'e'
                           .rsrc:0040715a 64                               0x64 'd'
                           .rsrc:0040715b 45                               0x45 'E'
                           .rsrc:0040715c 78                               0x78 'x'
                           .rsrc:0040715d 65                               0x65 'e'
                           .rsrc:0040715e 63                               0x63 'c'
                           .rsrc:0040715f 75                               0x75 'u'
                           .rsrc:00407160 74                               0x74 't'
                           .rsrc:00407161 69                               0x69 'i'
                           .rsrc:00407162 6f                               0x6f 'o'
                           .rsrc:00407163 6e                               0x6e 'n'
                           .rsrc:00407164 4c                               0x4c 'L'
                           .rsrc:00407165 65                               0x65 'e'
                           .rsrc:00407166 76                               0x76 'v'
                           .rsrc:00407167 65                               0x65 'e'
                           .rsrc:00407168 6c                               0x6c 'l'
                           .rsrc:00407169 20                               0x20 ' '
                           .rsrc:0040716a 6c                               0x6c 'l'
                           .rsrc:0040716b 65                               0x65 'e'
                           .rsrc:0040716c 76                               0x76 'v'
                           .rsrc:0040716d 65                               0x65 'e'
                           .rsrc:0040716e 6c                               0x6c 'l'
                           .rsrc:0040716f 3d                               0x3d '='
                           .rsrc:00407170 27                               0x27 '''
                           .rsrc:00407171 61                               0x61 'a'
                           .rsrc:00407172 73                               0x73 's'
                           .rsrc:00407173 49                               0x49 'I'
                           .rsrc:00407174 6e                               0x6e 'n'
                           .rsrc:00407175 76                               0x76 'v'
                           .rsrc:00407176 6f                               0x6f 'o'
                           .rsrc:00407177 6b                               0x6b 'k'
                           .rsrc:00407178 65                               0x65 'e'
                           .rsrc:00407179 72                               0x72 'r'
                           .rsrc:0040717a 27                               0x27 '''
                           .rsrc:0040717b 20                               0x20 ' '
                           .rsrc:0040717c 75                               0x75 'u'
                           .rsrc:0040717d 69                               0x69 'i'
                           .rsrc:0040717e 41                               0x41 'A'
                           .rsrc:0040717f 63                               0x63 'c'
                           .rsrc:00407180 63                               0x63 'c'
                           .rsrc:00407181 65                               0x65 'e'
                           .rsrc:00407182 73                               0x73 's'
                           .rsrc:00407183 73                               0x73 's'
                           .rsrc:00407184 3d                               0x3d '='
                           .rsrc:00407185 27                               0x27 '''
                           .rsrc:00407186 66                               0x66 'f'
                           .rsrc:00407187 61                               0x61 'a'
                           .rsrc:00407188 6c                               0x6c 'l'
                           .rsrc:00407189 73                               0x73 's'
                           .rsrc:0040718a 65                               0x65 'e'
                           .rsrc:0040718b 27                               0x27 '''
                           .rsrc:0040718c 20                               0x20 ' '
                           .rsrc:0040718d 2f                               0x2f '/'
                           .rsrc:0040718e 3e                               0x3e '>'
                           .rsrc:0040718f 0d                               0x0d '
'
                           .rsrc:00407190 0a                               0x0a '
'
                           .rsrc:00407191 20                               0x20 ' '
                           .rsrc:00407192 20                               0x20 ' '
                           .rsrc:00407193 20                               0x20 ' '
                           .rsrc:00407194 20                               0x20 ' '
                           .rsrc:00407195 20                               0x20 ' '
                           .rsrc:00407196 20                               0x20 ' '
                           .rsrc:00407197 3c                               0x3c '<'
                           .rsrc:00407198 2f                               0x2f '/'
                           .rsrc:00407199 72                               0x72 'r'
                           .rsrc:0040719a 65                               0x65 'e'
                           .rsrc:0040719b 71                               0x71 'q'
                           .rsrc:0040719c 75                               0x75 'u'
                           .rsrc:0040719d 65                               0x65 'e'
                           .rsrc:0040719e 73                               0x73 's'
                           .rsrc:0040719f 74                               0x74 't'
                           .rsrc:004071a0 65                               0x65 'e'
                           .rsrc:004071a1 64                               0x64 'd'
                           .rsrc:004071a2 50                               0x50 'P'
                           .rsrc:004071a3 72                               0x72 'r'
                           .rsrc:004071a4 69                               0x69 'i'
                           .rsrc:004071a5 76                               0x76 'v'
                           .rsrc:004071a6 69                               0x69 'i'
                           .rsrc:004071a7 6c                               0x6c 'l'
                           .rsrc:004071a8 65                               0x65 'e'
                           .rsrc:004071a9 67                               0x67 'g'
                           .rsrc:004071aa 65                               0x65 'e'
                           .rsrc:004071ab 73                               0x73 's'
                           .rsrc:004071ac 3e                               0x3e '>'
                           .rsrc:004071ad 0d                               0x0d '
'
                           .rsrc:004071ae 0a                               0x0a '
'
                           .rsrc:004071af 20                               0x20 ' '
                           .rsrc:004071b0 20                               0x20 ' '
                           .rsrc:004071b1 20                               0x20 ' '
                           .rsrc:004071b2 20                               0x20 ' '
                           .rsrc:004071b3 3c                               0x3c '<'
                           .rsrc:004071b4 2f                               0x2f '/'
                           .rsrc:004071b5 73                               0x73 's'
                           .rsrc:004071b6 65                               0x65 'e'
                           .rsrc:004071b7 63                               0x63 'c'
                           .rsrc:004071b8 75                               0x75 'u'
                           .rsrc:004071b9 72                               0x72 'r'
                           .rsrc:004071ba 69                               0x69 'i'
                           .rsrc:004071bb 74                               0x74 't'
                           .rsrc:004071bc 79                               0x79 'y'
                           .rsrc:004071bd 3e                               0x3e '>'
                           .rsrc:004071be 0d                               0x0d '
'
                           .rsrc:004071bf 0a                               0x0a '
'
                           .rsrc:004071c0 20                               0x20 ' '
                           .rsrc:004071c1 20                               0x20 ' '
                           .rsrc:004071c2 3c                               0x3c '<'
                           .rsrc:004071c3 2f                               0x2f '/'
                           .rsrc:004071c4 74                               0x74 't'
                           .rsrc:004071c5 72                               0x72 'r'
                           .rsrc:004071c6 75                               0x75 'u'
                           .rsrc:004071c7 73                               0x73 's'
                           .rsrc:004071c8 74                               0x74 't'
                           .rsrc:004071c9 49                               0x49 'I'
                           .rsrc:004071ca 6e                               0x6e 'n'
                           .rsrc:004071cb 66                               0x66 'f'
                           .rsrc:004071cc 6f                               0x6f 'o'
                           .rsrc:004071cd 3e                               0x3e '>'
                           .rsrc:004071ce 0d                               0x0d '
'
                           .rsrc:004071cf 0a                               0x0a '
'
                           .rsrc:004071d0 3c                               0x3c '<'
                           .rsrc:004071d1 2f                               0x2f '/'
                           .rsrc:004071d2 61                               0x61 'a'
                           .rsrc:004071d3 73                               0x73 's'
                           .rsrc:004071d4 73                               0x73 's'
                           .rsrc:004071d5 65                               0x65 'e'
                           .rsrc:004071d6 6d                               0x6d 'm'
                           .rsrc:004071d7 62                               0x62 'b'
                           .rsrc:004071d8 6c                               0x6c 'l'
                           .rsrc:004071d9 79                               0x79 'y'
                           .rsrc:004071da 3e                               0x3e '>'
                           .rsrc:004071db 0d                               0x0d '
'
                           .rsrc:004071dc 0a                               0x0a '
'
                           .rsrc:004071dd 00                               0x00 
                           .rsrc:004071de 00                               0x00 
                           .rsrc:004071df 00                               0x00 
                          .reloc:00408000 00                               0x00 
                          .reloc:00408001 10                               0x10 
                          .reloc:00408002 00                               0x00 
                          .reloc:00408003 00                               0x00 
                          .reloc:00408004 9c                               0x9c 
                          .reloc:00408005 02                               0x02 
                          .reloc:00408006 00                               0x00 
                          .reloc:00408007 00                               0x00 
                          .reloc:00408008 07                               0x07 
                          .reloc:00408009 30                               0x30 '0'
                          .reloc:0040800a 1d                               0x1d 
                          .reloc:0040800b 30                               0x30 '0'
                          .reloc:0040800c 27                               0x27 '''
                          .reloc:0040800d 30                               0x30 '0'
                          .reloc:0040800e 2b                               0x2b '+'
                          .reloc:0040800f 30                               0x30 '0'
                          .reloc:00408010 31                               0x31 '1'
                          .reloc:00408011 30                               0x30 '0'
                          .reloc:00408012 3b                               0x3b ';'
                          .reloc:00408013 30                               0x30 '0'
                          .reloc:00408014 45                               0x45 'E'
                          .reloc:00408015 30                               0x30 '0'
                          .reloc:00408016 4b                               0x4b 'K'
                          .reloc:00408017 30                               0x30 '0'
                          .reloc:00408018 57                               0x57 'W'
                          .reloc:00408019 30                               0x30 '0'
                          .reloc:0040801a 5d                               0x5d ']'
                          .reloc:0040801b 30                               0x30 '0'
                          .reloc:0040801c 64                               0x64 'd'
                          .reloc:0040801d 30                               0x30 '0'
                          .reloc:0040801e 6a                               0x6a 'j'
                          .reloc:0040801f 30                               0x30 '0'
                          .reloc:00408020 6f                               0x6f 'o'
                          .reloc:00408021 30                               0x30 '0'
                          .reloc:00408022 74                               0x74 't'
                          .reloc:00408023 30                               0x30 '0'
                          .reloc:00408024 7a                               0x7a 'z'
                          .reloc:00408025 30                               0x30 '0'
                          .reloc:00408026 7e                               0x7e '~'
                          .reloc:00408027 30                               0x30 '0'
                          .reloc:00408028 84                               0x84 
                          .reloc:00408029 30                               0x30 '0'
                          .reloc:0040802a 8d                               0x8d 
                          .reloc:0040802b 30                               0x30 '0'
                          .reloc:0040802c ac                               0xac 
                          .reloc:0040802d 30                               0x30 '0'
                          .reloc:0040802e b1                               0xb1 
                          .reloc:0040802f 30                               0x30 '0'
                          .reloc:00408030 d1                               0xd1 
                          .reloc:00408031 30                               0x30 '0'
                          .reloc:00408032 d6                               0xd6 
                          .reloc:00408033 30                               0x30 '0'
                          .reloc:00408034 dd                               0xdd 
                          .reloc:00408035 30                               0x30 '0'
                          .reloc:00408036 eb                               0xeb 
                          .reloc:00408037 30                               0x30 '0'
                          .reloc:00408038 f0                               0xf0 
                          .reloc:00408039 30                               0x30 '0'
                          .reloc:0040803a 02                               0x02 
                          .reloc:0040803b 31                               0x31 '1'
                          .reloc:0040803c 07                               0x07 
                          .reloc:0040803d 31                               0x31 '1'
                          .reloc:0040803e 17                               0x17 
                          .reloc:0040803f 31                               0x31 '1'
                          .reloc:00408040 29                               0x29 ')'
                          .reloc:00408041 31                               0x31 '1'
                          .reloc:00408042 2e                               0x2e '.'
                          .reloc:00408043 31                               0x31 '1'
                          .reloc:00408044 3e                               0x3e '>'
                          .reloc:00408045 31                               0x31 '1'
                          .reloc:00408046 50                               0x50 'P'
                          .reloc:00408047 31                               0x31 '1'
                          .reloc:00408048 55                               0x55 'U'
                          .reloc:00408049 31                               0x31 '1'
                          .reloc:0040804a 65                               0x65 'e'
                          .reloc:0040804b 31                               0x31 '1'
                          .reloc:0040804c 77                               0x77 'w'
                          .reloc:0040804d 31                               0x31 '1'
                          .reloc:0040804e 7c                               0x7c '|'
                          .reloc:0040804f 31                               0x31 '1'
                          .reloc:00408050 90                               0x90 
                          .reloc:00408051 31                               0x31 '1'
                          .reloc:00408052 a2                               0xa2 
                          .reloc:00408053 31                               0x31 '1'
                          .reloc:00408054 b4                               0xb4 
                          .reloc:00408055 31                               0x31 '1'
                          .reloc:00408056 b9                               0xb9 
                          .reloc:00408057 31                               0x31 '1'
                          .reloc:00408058 cc                               0xcc 
                          .reloc:00408059 31                               0x31 '1'
                          .reloc:0040805a d1                               0xd1 
                          .reloc:0040805b 31                               0x31 '1'
                          .reloc:0040805c e3                               0xe3 
                          .reloc:0040805d 31                               0x31 '1'
                          .reloc:0040805e e8                               0xe8 
                          .reloc:0040805f 31                               0x31 '1'
                          .reloc:00408060 fb                               0xfb 
                          .reloc:00408061 31                               0x31 '1'
                          .reloc:00408062 00                               0x00 
                          .reloc:00408063 32                               0x32 '2'
                          .reloc:00408064 12                               0x12 
                          .reloc:00408065 32                               0x32 '2'
                          .reloc:00408066 17                               0x17 
                          .reloc:00408067 32                               0x32 '2'
                          .reloc:00408068 2a                               0x2a '*'
                          .reloc:00408069 32                               0x32 '2'
                          .reloc:0040806a 2f                               0x2f '/'
                          .reloc:0040806b 32                               0x32 '2'
                          .reloc:0040806c 45                               0x45 'E'
                          .reloc:0040806d 32                               0x32 '2'
                          .reloc:0040806e 58                               0x58 'X'
                          .reloc:0040806f 32                               0x32 '2'
                          .reloc:00408070 5d                               0x5d ']'
                          .reloc:00408071 32                               0x32 '2'
                          .reloc:00408072 6f                               0x6f 'o'
                          .reloc:00408073 32                               0x32 '2'
                          .reloc:00408074 74                               0x74 't'
                          .reloc:00408075 32                               0x32 '2'
                          .reloc:00408076 87                               0x87 
                          .reloc:00408077 32                               0x32 '2'
                          .reloc:00408078 9c                               0x9c 
                          .reloc:00408079 32                               0x32 '2'
                          .reloc:0040807a a1                               0xa1 
                          .reloc:0040807b 32                               0x32 '2'
                          .reloc:0040807c b4                               0xb4 
                          .reloc:0040807d 32                               0x32 '2'
                          .reloc:0040807e cc                               0xcc 
                          .reloc:0040807f 32                               0x32 '2'
                          .reloc:00408080 d1                               0xd1 
                          .reloc:00408081 32                               0x32 '2'
                          .reloc:00408082 e4                               0xe4 
                          .reloc:00408083 32                               0x32 '2'
                          .reloc:00408084 f9                               0xf9 
                          .reloc:00408085 32                               0x32 '2'
                          .reloc:00408086 fe                               0xfe 
                          .reloc:00408087 32                               0x32 '2'
                          .reloc:00408088 11                               0x11 
                          .reloc:00408089 33                               0x33 '3'
                          .reloc:0040808a 16                               0x16 
                          .reloc:0040808b 33                               0x33 '3'
                          .reloc:0040808c 2b                               0x2b '+'
                          .reloc:0040808d 33                               0x33 '3'
                          .reloc:0040808e 30                               0x30 '0'
                          .reloc:0040808f 33                               0x33 '3'
                          .reloc:00408090 43                               0x43 'C'
                          .reloc:00408091 33                               0x33 '3'
                          .reloc:00408092 48                               0x48 'H'
                          .reloc:00408093 33                               0x33 '3'
                          .reloc:00408094 60                               0x60 '`'
                          .reloc:00408095 33                               0x33 '3'
                          .reloc:00408096 65                               0x65 'e'
                          .reloc:00408097 33                               0x33 '3'
                          .reloc:00408098 78                               0x78 'x'
                          .reloc:00408099 33                               0x33 '3'
                          .reloc:0040809a 8d                               0x8d 
                          .reloc:0040809b 33                               0x33 '3'
                          .reloc:0040809c 92                               0x92 
                          .reloc:0040809d 33                               0x33 '3'
                          .reloc:0040809e a5                               0xa5 
                          .reloc:0040809f 33                               0x33 '3'
                          .reloc:004080a0 aa                               0xaa 
                          .reloc:004080a1 33                               0x33 '3'
                          .reloc:004080a2 bf                               0xbf 
                          .reloc:004080a3 33                               0x33 '3'
                          .reloc:004080a4 c4                               0xc4 
                          .reloc:004080a5 33                               0x33 '3'
                          .reloc:004080a6 d7                               0xd7 
                          .reloc:004080a7 33                               0x33 '3'
                          .reloc:004080a8 dc                               0xdc 
                          .reloc:004080a9 33                               0x33 '3'
                          .reloc:004080aa f1                               0xf1 
                          .reloc:004080ab 33                               0x33 '3'
                          .reloc:004080ac f6                               0xf6 
                          .reloc:004080ad 33                               0x33 '3'
                          .reloc:004080ae 06                               0x06 
                          .reloc:004080af 34                               0x34 '4'
                          .reloc:004080b0 0b                               0x0b ''
                          .reloc:004080b1 34                               0x34 '4'
                          .reloc:004080b2 20                               0x20 ' '
                          .reloc:004080b3 34                               0x34 '4'
                          .reloc:004080b4 25                               0x25 '%'
                          .reloc:004080b5 34                               0x34 '4'
                          .reloc:004080b6 38                               0x38 '8'
                          .reloc:004080b7 34                               0x34 '4'
                          .reloc:004080b8 4d                               0x4d 'M'
                          .reloc:004080b9 34                               0x34 '4'
                          .reloc:004080ba 52                               0x52 'R'
                          .reloc:004080bb 34                               0x34 '4'
                          .reloc:004080bc 5c                               0x5c '\'
                          .reloc:004080bd 34                               0x34 '4'
                          .reloc:004080be 6b                               0x6b 'k'
                          .reloc:004080bf 34                               0x34 '4'
                          .reloc:004080c0 70                               0x70 'p'
                          .reloc:004080c1 34                               0x34 '4'
                          .reloc:004080c2 81                               0x81 
                          .reloc:004080c3 34                               0x34 '4'
                          .reloc:004080c4 87                               0x87 
                          .reloc:004080c5 34                               0x34 '4'
                          .reloc:004080c6 8e                               0x8e 
                          .reloc:004080c7 34                               0x34 '4'
                          .reloc:004080c8 a0                               0xa0 
                          .reloc:004080c9 34                               0x34 '4'
                          .reloc:004080ca ab                               0xab 
                          .reloc:004080cb 34                               0x34 '4'
                          .reloc:004080cc b1                               0xb1 
                          .reloc:004080cd 34                               0x34 '4'
                          .reloc:004080ce b7                               0xb7 
                          .reloc:004080cf 34                               0x34 '4'
                          .reloc:004080d0 bd                               0xbd 
                          .reloc:004080d1 34                               0x34 '4'
                          .reloc:004080d2 c2                               0xc2 
                          .reloc:004080d3 34                               0x34 '4'
                          .reloc:004080d4 c8                               0xc8 
                          .reloc:004080d5 34                               0x34 '4'
                          .reloc:004080d6 d4                               0xd4 
                          .reloc:004080d7 34                               0x34 '4'
                          .reloc:004080d8 e5                               0xe5 
                          .reloc:004080d9 34                               0x34 '4'
                          .reloc:004080da f6                               0xf6 
                          .reloc:004080db 34                               0x34 '4'
                          .reloc:004080dc 07                               0x07 
                          .reloc:004080dd 35                               0x35 '5'
                          .reloc:004080de 15                               0x15 
                          .reloc:004080df 35                               0x35 '5'
                          .reloc:004080e0 22                               0x22 '"'
                          .reloc:004080e1 35                               0x35 '5'
                          .reloc:004080e2 29                               0x29 ')'
                          .reloc:004080e3 35                               0x35 '5'
                          .reloc:004080e4 30                               0x30 '0'
                          .reloc:004080e5 35                               0x35 '5'
                          .reloc:004080e6 42                               0x42 'B'
                          .reloc:004080e7 35                               0x35 '5'
                          .reloc:004080e8 4f                               0x4f 'O'
                          .reloc:004080e9 35                               0x35 '5'
                          .reloc:004080ea 56                               0x56 'V'
                          .reloc:004080eb 35                               0x35 '5'
                          .reloc:004080ec 61                               0x61 'a'
                          .reloc:004080ed 35                               0x35 '5'
                          .reloc:004080ee 67                               0x67 'g'
                          .reloc:004080ef 35                               0x35 '5'
                          .reloc:004080f0 70                               0x70 'p'
                          .reloc:004080f1 35                               0x35 '5'
                          .reloc:004080f2 7e                               0x7e '~'
                          .reloc:004080f3 35                               0x35 '5'
                          .reloc:004080f4 8f                               0x8f 
                          .reloc:004080f5 35                               0x35 '5'
                          .reloc:004080f6 a0                               0xa0 
                          .reloc:004080f7 35                               0x35 '5'
                          .reloc:004080f8 ba                               0xba 
                          .reloc:004080f9 35                               0x35 '5'
                          .reloc:004080fa c1                               0xc1 
                          .reloc:004080fb 35                               0x35 '5'
                          .reloc:004080fc ca                               0xca 
                          .reloc:004080fd 35                               0x35 '5'
                          .reloc:004080fe d3                               0xd3 
                          .reloc:004080ff 35                               0x35 '5'
                          .reloc:00408100 dc                               0xdc 
                          .reloc:00408101 35                               0x35 '5'
                          .reloc:00408102 e3                               0xe3 
                          .reloc:00408103 35                               0x35 '5'
                          .reloc:00408104 e9                               0xe9 
                          .reloc:00408105 35                               0x35 '5'
                          .reloc:00408106 f8                               0xf8 
                          .reloc:00408107 35                               0x35 '5'
                          .reloc:00408108 ff                               0xff 
                          .reloc:00408109 35                               0x35 '5'
                          .reloc:0040810a 0b                               0x0b ''
                          .reloc:0040810b 36                               0x36 '6'
                          .reloc:0040810c 19                               0x19 
                          .reloc:0040810d 36                               0x36 '6'
                          .reloc:0040810e 36                               0x36 '6'
                          .reloc:0040810f 36                               0x36 '6'
                          .reloc:00408110 3d                               0x3d '='
                          .reloc:00408111 36                               0x36 '6'
                          .reloc:00408112 46                               0x46 'F'
                          .reloc:00408113 36                               0x36 '6'
                          .reloc:00408114 4c                               0x4c 'L'
                          .reloc:00408115 36                               0x36 '6'
                          .reloc:00408116 51                               0x51 'Q'
                          .reloc:00408117 36                               0x36 '6'
                          .reloc:00408118 57                               0x57 'W'
                          .reloc:00408119 36                               0x36 '6'
                          .reloc:0040811a 60                               0x60 '`'
                          .reloc:0040811b 36                               0x36 '6'
                          .reloc:0040811c 65                               0x65 'e'
                          .reloc:0040811d 36                               0x36 '6'
                          .reloc:0040811e 6d                               0x6d 'm'
                          .reloc:0040811f 36                               0x36 '6'
                          .reloc:00408120 7c                               0x7c '|'
                          .reloc:00408121 36                               0x36 '6'
                          .reloc:00408122 82                               0x82 
                          .reloc:00408123 36                               0x36 '6'
                          .reloc:00408124 89                               0x89 
                          .reloc:00408125 36                               0x36 '6'
                          .reloc:00408126 9b                               0x9b 
                          .reloc:00408127 36                               0x36 '6'
                          .reloc:00408128 ac                               0xac 
                          .reloc:00408129 36                               0x36 '6'
                          .reloc:0040812a b9                               0xb9 
                          .reloc:0040812b 36                               0x36 '6'
                          .reloc:0040812c c6                               0xc6 
                          .reloc:0040812d 36                               0x36 '6'
                          .reloc:0040812e cd                               0xcd 
                          .reloc:0040812f 36                               0x36 '6'
                          .reloc:00408130 d8                               0xd8 
                          .reloc:00408131 36                               0x36 '6'
                          .reloc:00408132 de                               0xde 
                          .reloc:00408133 36                               0x36 '6'
                          .reloc:00408134 e7                               0xe7 
                          .reloc:00408135 36                               0x36 '6'
                          .reloc:00408136 f5                               0xf5 
                          .reloc:00408137 36                               0x36 '6'
                          .reloc:00408138 06                               0x06 
                          .reloc:00408139 37                               0x37 '7'
                          .reloc:0040813a 17                               0x17 
                          .reloc:0040813b 37                               0x37 '7'
                          .reloc:0040813c 2f                               0x2f '/'
                          .reloc:0040813d 37                               0x37 '7'
                          .reloc:0040813e 36                               0x36 '6'
                          .reloc:0040813f 37                               0x37 '7'
                          .reloc:00408140 3f                               0x3f '?'
                          .reloc:00408141 37                               0x37 '7'
                          .reloc:00408142 48                               0x48 'H'
                          .reloc:00408143 37                               0x37 '7'
                          .reloc:00408144 51                               0x51 'Q'
                          .reloc:00408145 37                               0x37 '7'
                          .reloc:00408146 58                               0x58 'X'
                          .reloc:00408147 37                               0x37 '7'
                          .reloc:00408148 5e                               0x5e '^'
                          .reloc:00408149 37                               0x37 '7'
                          .reloc:0040814a 6d                               0x6d 'm'
                          .reloc:0040814b 37                               0x37 '7'
                          .reloc:0040814c 74                               0x74 't'
                          .reloc:0040814d 37                               0x37 '7'
                          .reloc:0040814e 80                               0x80 
                          .reloc:0040814f 37                               0x37 '7'
                          .reloc:00408150 92                               0x92 
                          .reloc:00408151 37                               0x37 '7'
                          .reloc:00408152 a7                               0xa7 
                          .reloc:00408153 37                               0x37 '7'
                          .reloc:00408154 bc                               0xbc 
                          .reloc:00408155 37                               0x37 '7'
                          .reloc:00408156 c3                               0xc3 
                          .reloc:00408157 37                               0x37 '7'
                          .reloc:00408158 cc                               0xcc 
                          .reloc:00408159 37                               0x37 '7'
                          .reloc:0040815a d2                               0xd2 
                          .reloc:0040815b 37                               0x37 '7'
                          .reloc:0040815c d7                               0xd7 
                          .reloc:0040815d 37                               0x37 '7'
                          .reloc:0040815e dd                               0xdd 
                          .reloc:0040815f 37                               0x37 '7'
                          .reloc:00408160 e5                               0xe5 
                          .reloc:00408161 37                               0x37 '7'
                          .reloc:00408162 ec                               0xec 
                          .reloc:00408163 37                               0x37 '7'
                          .reloc:00408164 f4                               0xf4 
                          .reloc:00408165 37                               0x37 '7'
                          .reloc:00408166 fb                               0xfb 
                          .reloc:00408167 37                               0x37 '7'
                          .reloc:00408168 06                               0x06 
                          .reloc:00408169 38                               0x38 '8'
                          .reloc:0040816a 0c                               0x0c ''
                          .reloc:0040816b 38                               0x38 '8'
                          .reloc:0040816c 12                               0x12 
                          .reloc:0040816d 38                               0x38 '8'
                          .reloc:0040816e 1b                               0x1b 
                          .reloc:0040816f 38                               0x38 '8'
                          .reloc:00408170 21                               0x21 '!'
                          .reloc:00408171 38                               0x38 '8'
                          .reloc:00408172 27                               0x27 '''
                          .reloc:00408173 38                               0x38 '8'
                          .reloc:00408174 2e                               0x2e '.'
                          .reloc:00408175 38                               0x38 '8'
                          .reloc:00408176 55                               0x55 'U'
                          .reloc:00408177 38                               0x38 '8'
                          .reloc:00408178 5b                               0x5b '['
                          .reloc:00408179 38                               0x38 '8'
                          .reloc:0040817a 67                               0x67 'g'
                          .reloc:0040817b 38                               0x38 '8'
                          .reloc:0040817c 70                               0x70 'p'
                          .reloc:0040817d 38                               0x38 '8'
                          .reloc:0040817e 83                               0x83 
                          .reloc:0040817f 38                               0x38 '8'
                          .reloc:00408180 8b                               0x8b 
                          .reloc:00408181 38                               0x38 '8'
                          .reloc:00408182 94                               0x94 
                          .reloc:00408183 38                               0x38 '8'
                          .reloc:00408184 a7                               0xa7 
                          .reloc:00408185 38                               0x38 '8'
                          .reloc:00408186 af                               0xaf 
                          .reloc:00408187 38                               0x38 '8'
                          .reloc:00408188 b8                               0xb8 
                          .reloc:00408189 38                               0x38 '8'
                          .reloc:0040818a cb                               0xcb 
                          .reloc:0040818b 38                               0x38 '8'
                          .reloc:0040818c d3                               0xd3 
                          .reloc:0040818d 38                               0x38 '8'
                          .reloc:0040818e dc                               0xdc 
                          .reloc:0040818f 38                               0x38 '8'
                          .reloc:00408190 ef                               0xef 
                          .reloc:00408191 38                               0x38 '8'
                          .reloc:00408192 f4                               0xf4 
                          .reloc:00408193 38                               0x38 '8'
                          .reloc:00408194 fc                               0xfc 
                          .reloc:00408195 38                               0x38 '8'
                          .reloc:00408196 04                               0x04 
                          .reloc:00408197 39                               0x39 '9'
                          .reloc:00408198 0c                               0x0c ''
                          .reloc:00408199 39                               0x39 '9'
                          .reloc:0040819a 18                               0x18 
                          .reloc:0040819b 39                               0x39 '9'
                          .reloc:0040819c 27                               0x27 '''
                          .reloc:0040819d 39                               0x39 '9'
                          .reloc:0040819e 2d                               0x2d '-'
                          .reloc:0040819f 39                               0x39 '9'
                          .reloc:004081a0 37                               0x37 '7'
                          .reloc:004081a1 39                               0x39 '9'
                          .reloc:004081a2 45                               0x45 'E'
                          .reloc:004081a3 39                               0x39 '9'
                          .reloc:004081a4 4e                               0x4e 'N'
                          .reloc:004081a5 39                               0x39 '9'
                          .reloc:004081a6 5c                               0x5c '\'
                          .reloc:004081a7 39                               0x39 '9'
                          .reloc:004081a8 68                               0x68 'h'
                          .reloc:004081a9 39                               0x39 '9'
                          .reloc:004081aa 94                               0x94 
                          .reloc:004081ab 39                               0x39 '9'
                          .reloc:004081ac 9a                               0x9a 
                          .reloc:004081ad 39                               0x39 '9'
                          .reloc:004081ae ad                               0xad 
                          .reloc:004081af 39                               0x39 '9'
                          .reloc:004081b0 b6                               0xb6 
                          .reloc:004081b1 39                               0x39 '9'
                          .reloc:004081b2 bd                               0xbd 
                          .reloc:004081b3 39                               0x39 '9'
                          .reloc:004081b4 c3                               0xc3 
                          .reloc:004081b5 39                               0x39 '9'
                          .reloc:004081b6 ce                               0xce 
                          .reloc:004081b7 39                               0x39 '9'
                          .reloc:004081b8 d4                               0xd4 
                          .reloc:004081b9 39                               0x39 '9'
                          .reloc:004081ba dc                               0xdc 
                          .reloc:004081bb 39                               0x39 '9'
                          .reloc:004081bc e3                               0xe3 
                          .reloc:004081bd 39                               0x39 '9'
                          .reloc:004081be ed                               0xed 
                          .reloc:004081bf 39                               0x39 '9'
                          .reloc:004081c0 f9                               0xf9 
                          .reloc:004081c1 39                               0x39 '9'
                          .reloc:004081c2 02                               0x02 
                          .reloc:004081c3 3a                               0x3a ':'
                          .reloc:004081c4 08                               0x08 
                          .reloc:004081c5 3a                               0x3a ':'
                          .reloc:004081c6 12                               0x12 
                          .reloc:004081c7 3a                               0x3a ':'
                          .reloc:004081c8 1b                               0x1b 
                          .reloc:004081c9 3a                               0x3a ':'
                          .reloc:004081ca 27                               0x27 '''
                          .reloc:004081cb 3a                               0x3a ':'
                          .reloc:004081cc 42                               0x42 'B'
                          .reloc:004081cd 3a                               0x3a ':'
                          .reloc:004081ce 48                               0x48 'H'
                          .reloc:004081cf 3a                               0x3a ':'
                          .reloc:004081d0 5e                               0x5e '^'
                          .reloc:004081d1 3a                               0x3a ':'
                          .reloc:004081d2 64                               0x64 'd'
                          .reloc:004081d3 3a                               0x3a ':'
                          .reloc:004081d4 7a                               0x7a 'z'
                          .reloc:004081d5 3a                               0x3a ':'
                          .reloc:004081d6 80                               0x80 
                          .reloc:004081d7 3a                               0x3a ':'
                          .reloc:004081d8 96                               0x96 
                          .reloc:004081d9 3a                               0x3a ':'
                          .reloc:004081da 9d                               0x9d 
                          .reloc:004081db 3a                               0x3a ':'
                          .reloc:004081dc d0                               0xd0 
                          .reloc:004081dd 3a                               0x3a ':'
                          .reloc:004081de d5                               0xd5 
                          .reloc:004081df 3a                               0x3a ':'
                          .reloc:004081e0 de                               0xde 
                          .reloc:004081e1 3a                               0x3a ':'
                          .reloc:004081e2 eb                               0xeb 
                          .reloc:004081e3 3a                               0x3a ':'
                          .reloc:004081e4 f1                               0xf1 
                          .reloc:004081e5 3a                               0x3a ':'
                          .reloc:004081e6 f7                               0xf7 
                          .reloc:004081e7 3a                               0x3a ':'
                          .reloc:004081e8 04                               0x04 
                          .reloc:004081e9 3b                               0x3b ';'
                          .reloc:004081ea 0d                               0x0d '
'
                          .reloc:004081eb 3b                               0x3b ';'
                          .reloc:004081ec 30                               0x30 '0'
                          .reloc:004081ed 3b                               0x3b ';'
                          .reloc:004081ee 35                               0x35 '5'
                          .reloc:004081ef 3b                               0x3b ';'
                          .reloc:004081f0 3e                               0x3e '>'
                          .reloc:004081f1 3b                               0x3b ';'
                          .reloc:004081f2 4b                               0x4b 'K'
                          .reloc:004081f3 3b                               0x3b ';'
                          .reloc:004081f4 51                               0x51 'Q'
                          .reloc:004081f5 3b                               0x3b ';'
                          .reloc:004081f6 57                               0x57 'W'
                          .reloc:004081f7 3b                               0x3b ';'
                          .reloc:004081f8 64                               0x64 'd'
                          .reloc:004081f9 3b                               0x3b ';'
                          .reloc:004081fa 6b                               0x6b 'k'
                          .reloc:004081fb 3b                               0x3b ';'
                          .reloc:004081fc 71                               0x71 'q'
                          .reloc:004081fd 3b                               0x3b ';'
                          .reloc:004081fe 7b                               0x7b '{'
                          .reloc:004081ff 3b                               0x3b ';'
                          .reloc:00408200 92                               0x92 
                          .reloc:00408201 3b                               0x3b ';'
                          .reloc:00408202 97                               0x97 
                          .reloc:00408203 3b                               0x3b ';'
                          .reloc:00408204 9d                               0x9d 
                          .reloc:00408205 3b                               0x3b ';'
                          .reloc:00408206 a4                               0xa4 
                          .reloc:00408207 3b                               0x3b ';'
                          .reloc:00408208 aa                               0xaa 
                          .reloc:00408209 3b                               0x3b ';'
                          .reloc:0040820a b0                               0xb0 
                          .reloc:0040820b 3b                               0x3b ';'
                          .reloc:0040820c b9                               0xb9 
                          .reloc:0040820d 3b                               0x3b ';'
                          .reloc:0040820e be                               0xbe 
                          .reloc:0040820f 3b                               0x3b ';'
                          .reloc:00408210 c5                               0xc5 
                          .reloc:00408211 3b                               0x3b ';'
                          .reloc:00408212 ca                               0xca 
                          .reloc:00408213 3b                               0x3b ';'
                          .reloc:00408214 cf                               0xcf 
                          .reloc:00408215 3b                               0x3b ';'
                          .reloc:00408216 d4                               0xd4 
                          .reloc:00408217 3b                               0x3b ';'
                          .reloc:00408218 de                               0xde 
                          .reloc:00408219 3b                               0x3b ';'
                          .reloc:0040821a e4                               0xe4 
                          .reloc:0040821b 3b                               0x3b ';'
                          .reloc:0040821c f0                               0xf0 
                          .reloc:0040821d 3b                               0x3b ';'
                          .reloc:0040821e f8                               0xf8 
                          .reloc:0040821f 3b                               0x3b ';'
                          .reloc:00408220 ff                               0xff 
                          .reloc:00408221 3b                               0x3b ';'
                          .reloc:00408222 0b                               0x0b ''
                          .reloc:00408223 3c                               0x3c '<'
                          .reloc:00408224 17                               0x17 
                          .reloc:00408225 3c                               0x3c '<'
                          .reloc:00408226 20                               0x20 ' '
                          .reloc:00408227 3c                               0x3c '<'
                          .reloc:00408228 29                               0x29 ')'
                          .reloc:00408229 3c                               0x3c '<'
                          .reloc:0040822a 35                               0x35 '5'
                          .reloc:0040822b 3c                               0x3c '<'
                          .reloc:0040822c 4b                               0x4b 'K'
                          .reloc:0040822d 3c                               0x3c '<'
                          .reloc:0040822e 51                               0x51 'Q'
                          .reloc:0040822f 3c                               0x3c '<'
                          .reloc:00408230 76                               0x76 'v'
                          .reloc:00408231 3c                               0x3c '<'
                          .reloc:00408232 80                               0x80 
                          .reloc:00408233 3c                               0x3c '<'
                          .reloc:00408234 97                               0x97 
                          .reloc:00408235 3c                               0x3c '<'
                          .reloc:00408236 9c                               0x9c 
                          .reloc:00408237 3c                               0x3c '<'
                          .reloc:00408238 a2                               0xa2 
                          .reloc:00408239 3c                               0x3c '<'
                          .reloc:0040823a a8                               0xa8 
                          .reloc:0040823b 3c                               0x3c '<'
                          .reloc:0040823c da                               0xda 
                          .reloc:0040823d 3c                               0x3c '<'
                          .reloc:0040823e 05                               0x05 
                          .reloc:0040823f 3d                               0x3d '='
                          .reloc:00408240 0f                               0x0f 
                          .reloc:00408241 3d                               0x3d '='
                          .reloc:00408242 15                               0x15 
                          .reloc:00408243 3d                               0x3d '='
                          .reloc:00408244 31                               0x31 '1'
                          .reloc:00408245 3d                               0x3d '='
                          .reloc:00408246 38                               0x38 '8'
                          .reloc:00408247 3d                               0x3d '='
                          .reloc:00408248 57                               0x57 'W'
                          .reloc:00408249 3d                               0x3d '='
                          .reloc:0040824a 77                               0x77 'w'
                          .reloc:0040824b 3d                               0x3d '='
                          .reloc:0040824c 83                               0x83 
                          .reloc:0040824d 3d                               0x3d '='
                          .reloc:0040824e ac                               0xac 
                          .reloc:0040824f 3d                               0x3d '='
                          .reloc:00408250 f3                               0xf3 
                          .reloc:00408251 3d                               0x3d '='
                          .reloc:00408252 f8                               0xf8 
                          .reloc:00408253 3d                               0x3d '='
                          .reloc:00408254 fe                               0xfe 
                          .reloc:00408255 3d                               0x3d '='
                          .reloc:00408256 04                               0x04 
                          .reloc:00408257 3e                               0x3e '>'
                          .reloc:00408258 1e                               0x1e 
                          .reloc:00408259 3e                               0x3e '>'
                          .reloc:0040825a 39                               0x39 '9'
                          .reloc:0040825b 3e                               0x3e '>'
                          .reloc:0040825c 46                               0x46 'F'
                          .reloc:0040825d 3e                               0x3e '>'
                          .reloc:0040825e 53                               0x53 'S'
                          .reloc:0040825f 3e                               0x3e '>'
                          .reloc:00408260 5c                               0x5c '\'
                          .reloc:00408261 3e                               0x3e '>'
                          .reloc:00408262 75                               0x75 'u'
                          .reloc:00408263 3e                               0x3e '>'
                          .reloc:00408264 82                               0x82 
                          .reloc:00408265 3e                               0x3e '>'
                          .reloc:00408266 8f                               0x8f 
                          .reloc:00408267 3e                               0x3e '>'
                          .reloc:00408268 98                               0x98 
                          .reloc:00408269 3e                               0x3e '>'
                          .reloc:0040826a c6                               0xc6 
                          .reloc:0040826b 3e                               0x3e '>'
                          .reloc:0040826c cc                               0xcc 
                          .reloc:0040826d 3e                               0x3e '>'
                          .reloc:0040826e d2                               0xd2 
                          .reloc:0040826f 3e                               0x3e '>'
                          .reloc:00408270 d9                               0xd9 
                          .reloc:00408271 3e                               0x3e '>'
                          .reloc:00408272 df                               0xdf 
                          .reloc:00408273 3e                               0x3e '>'
                          .reloc:00408274 e8                               0xe8 
                          .reloc:00408275 3e                               0x3e '>'
                          .reloc:00408276 f2                               0xf2 
                          .reloc:00408277 3e                               0x3e '>'
                          .reloc:00408278 fa                               0xfa 
                          .reloc:00408279 3e                               0x3e '>'
                          .reloc:0040827a 18                               0x18 
                          .reloc:0040827b 3f                               0x3f '?'
                          .reloc:0040827c 20                               0x20 ' '
                          .reloc:0040827d 3f                               0x3f '?'
                          .reloc:0040827e 3e                               0x3e '>'
                          .reloc:0040827f 3f                               0x3f '?'
                          .reloc:00408280 46                               0x46 'F'
                          .reloc:00408281 3f                               0x3f '?'
                          .reloc:00408282 67                               0x67 'g'
                          .reloc:00408283 3f                               0x3f '?'
                          .reloc:00408284 6e                               0x6e 'n'
                          .reloc:00408285 3f                               0x3f '?'
                          .reloc:00408286 76                               0x76 'v'
                          .reloc:00408287 3f                               0x3f '?'
                          .reloc:00408288 92                               0x92 
                          .reloc:00408289 3f                               0x3f '?'
                          .reloc:0040828a 9a                               0x9a 
                          .reloc:0040828b 3f                               0x3f '?'
                          .reloc:0040828c a2                               0xa2 
                          .reloc:0040828d 3f                               0x3f '?'
                          .reloc:0040828e bc                               0xbc 
                          .reloc:0040828f 3f                               0x3f '?'
                          .reloc:00408290 c0                               0xc0 
                          .reloc:00408291 3f                               0x3f '?'
                          .reloc:00408292 c4                               0xc4 
                          .reloc:00408293 3f                               0x3f '?'
                          .reloc:00408294 c8                               0xc8 
                          .reloc:00408295 3f                               0x3f '?'
                          .reloc:00408296 cc                               0xcc 
                          .reloc:00408297 3f                               0x3f '?'
                          .reloc:00408298 d2                               0xd2 
                          .reloc:00408299 3f                               0x3f '?'
                          .reloc:0040829a 00                               0x00 
                          .reloc:0040829b 00                               0x00 
                          .reloc:0040829c 00                               0x00 
                          .reloc:0040829d 20                               0x20 ' '
                          .reloc:0040829e 00                               0x00 
                          .reloc:0040829f 00                               0x00 
                          .reloc:004082a0 48                               0x48 'H'
                          .reloc:004082a1 01                               0x01 
                          .reloc:004082a2 00                               0x00 
                          .reloc:004082a3 00                               0x00 
                          .reloc:004082a4 19                               0x19 
                          .reloc:004082a5 30                               0x30 '0'
                          .reloc:004082a6 42                               0x42 'B'
                          .reloc:004082a7 30                               0x30 '0'
                          .reloc:004082a8 99                               0x99 
                          .reloc:004082a9 30                               0x30 '0'
                          .reloc:004082aa c7                               0xc7 
                          .reloc:004082ab 30                               0x30 '0'
                          .reloc:004082ac d8                               0xd8 
                          .reloc:004082ad 30                               0x30 '0'
                          .reloc:004082ae dd                               0xdd 
                          .reloc:004082af 30                               0x30 '0'
                          .reloc:004082b0 e2                               0xe2 
                          .reloc:004082b1 30                               0x30 '0'
                          .reloc:004082b2 03                               0x03 
                          .reloc:004082b3 31                               0x31 '1'
                          .reloc:004082b4 08                               0x08 
                          .reloc:004082b5 31                               0x31 '1'
                          .reloc:004082b6 15                               0x15 
                          .reloc:004082b7 31                               0x31 '1'
                          .reloc:004082b8 8a                               0x8a 
                          .reloc:004082b9 31                               0x31 '1'
                          .reloc:004082ba 1d                               0x1d 
                          .reloc:004082bb 32                               0x32 '2'
                          .reloc:004082bc 26                               0x26 '&'
                          .reloc:004082bd 32                               0x32 '2'
                          .reloc:004082be 31                               0x31 '1'
                          .reloc:004082bf 32                               0x32 '2'
                          .reloc:004082c0 38                               0x38 '8'
                          .reloc:004082c1 32                               0x32 '2'
                          .reloc:004082c2 58                               0x58 'X'
                          .reloc:004082c3 32                               0x32 '2'
                          .reloc:004082c4 5e                               0x5e '^'
                          .reloc:004082c5 32                               0x32 '2'
                          .reloc:004082c6 64                               0x64 'd'
                          .reloc:004082c7 32                               0x32 '2'
                          .reloc:004082c8 6a                               0x6a 'j'
                          .reloc:004082c9 32                               0x32 '2'
                          .reloc:004082ca 70                               0x70 'p'
                          .reloc:004082cb 32                               0x32 '2'
                          .reloc:004082cc 76                               0x76 'v'
                          .reloc:004082cd 32                               0x32 '2'
                          .reloc:004082ce 7d                               0x7d '}'
                          .reloc:004082cf 32                               0x32 '2'
                          .reloc:004082d0 84                               0x84 
                          .reloc:004082d1 32                               0x32 '2'
                          .reloc:004082d2 8b                               0x8b 
                          .reloc:004082d3 32                               0x32 '2'
                          .reloc:004082d4 92                               0x92 
                          .reloc:004082d5 32                               0x32 '2'
                          .reloc:004082d6 99                               0x99 
                          .reloc:004082d7 32                               0x32 '2'
                          .reloc:004082d8 a0                               0xa0 
                          .reloc:004082d9 32                               0x32 '2'
                          .reloc:004082da a7                               0xa7 
                          .reloc:004082db 32                               0x32 '2'
                          .reloc:004082dc af                               0xaf 
                          .reloc:004082dd 32                               0x32 '2'
                          .reloc:004082de b7                               0xb7 
                          .reloc:004082df 32                               0x32 '2'
                          .reloc:004082e0 bf                               0xbf 
                          .reloc:004082e1 32                               0x32 '2'
                          .reloc:004082e2 cb                               0xcb 
                          .reloc:004082e3 32                               0x32 '2'
                          .reloc:004082e4 d4                               0xd4 
                          .reloc:004082e5 32                               0x32 '2'
                          .reloc:004082e6 d9                               0xd9 
                          .reloc:004082e7 32                               0x32 '2'
                          .reloc:004082e8 df                               0xdf 
                          .reloc:004082e9 32                               0x32 '2'
                          .reloc:004082ea e9                               0xe9 
                          .reloc:004082eb 32                               0x32 '2'
                          .reloc:004082ec f3                               0xf3 
                          .reloc:004082ed 32                               0x32 '2'
                          .reloc:004082ee 03                               0x03 
                          .reloc:004082ef 33                               0x33 '3'
                          .reloc:004082f0 13                               0x13 
                          .reloc:004082f1 33                               0x33 '3'
                          .reloc:004082f2 23                               0x23 '#'
                          .reloc:004082f3 33                               0x33 '3'
                          .reloc:004082f4 2c                               0x2c ','
                          .reloc:004082f5 33                               0x33 '3'
                          .reloc:004082f6 91                               0x91 
                          .reloc:004082f7 33                               0x33 '3'
                          .reloc:004082f8 bd                               0xbd 
                          .reloc:004082f9 33                               0x33 '3'
                          .reloc:004082fa 0c                               0x0c ''
                          .reloc:004082fb 34                               0x34 '4'
                          .reloc:004082fc 1f                               0x1f 
                          .reloc:004082fd 34                               0x34 '4'
                          .reloc:004082fe 32                               0x32 '2'
                          .reloc:004082ff 34                               0x34 '4'
                          .reloc:00408300 3e                               0x3e '>'
                          .reloc:00408301 34                               0x34 '4'
                          .reloc:00408302 4e                               0x4e 'N'
                          .reloc:00408303 34                               0x34 '4'
                          .reloc:00408304 5f                               0x5f '_'
                          .reloc:00408305 34                               0x34 '4'
                          .reloc:00408306 85                               0x85 
                          .reloc:00408307 34                               0x34 '4'
                          .reloc:00408308 9a                               0x9a 
                          .reloc:00408309 34                               0x34 '4'
                          .reloc:0040830a a1                               0xa1 
                          .reloc:0040830b 34                               0x34 '4'
                          .reloc:0040830c a7                               0xa7 
                          .reloc:0040830d 34                               0x34 '4'
                          .reloc:0040830e b9                               0xb9 
                          .reloc:0040830f 34                               0x34 '4'
                          .reloc:00408310 c3                               0xc3 
                          .reloc:00408311 34                               0x34 '4'
                          .reloc:00408312 24                               0x24 '$'
                          .reloc:00408313 35                               0x35 '5'
                          .reloc:00408314 31                               0x31 '1'
                          .reloc:00408315 35                               0x35 '5'
                          .reloc:00408316 58                               0x58 'X'
                          .reloc:00408317 35                               0x35 '5'
                          .reloc:00408318 60                               0x60 '`'
                          .reloc:00408319 35                               0x35 '5'
                          .reloc:0040831a 79                               0x79 'y'
                          .reloc:0040831b 35                               0x35 '5'
                          .reloc:0040831c b3                               0xb3 
                          .reloc:0040831d 35                               0x35 '5'
                          .reloc:0040831e ce                               0xce 
                          .reloc:0040831f 35                               0x35 '5'
                          .reloc:00408320 da                               0xda 
                          .reloc:00408321 35                               0x35 '5'
                          .reloc:00408322 e9                               0xe9 
                          .reloc:00408323 35                               0x35 '5'
                          .reloc:00408324 f2                               0xf2 
                          .reloc:00408325 35                               0x35 '5'
                          .reloc:00408326 ff                               0xff 
                          .reloc:00408327 35                               0x35 '5'
                          .reloc:00408328 2e                               0x2e '.'
                          .reloc:00408329 36                               0x36 '6'
                          .reloc:0040832a 36                               0x36 '6'
                          .reloc:0040832b 36                               0x36 '6'
                          .reloc:0040832c 4e                               0x4e 'N'
                          .reloc:0040832d 36                               0x36 '6'
                          .reloc:0040832e 54                               0x54 'T'
                          .reloc:0040832f 36                               0x36 '6'
                          .reloc:00408330 7b                               0x7b '{'
                          .reloc:00408331 36                               0x36 '6'
                          .reloc:00408332 81                               0x81 
                          .reloc:00408333 36                               0x36 '6'
                          .reloc:00408334 a7                               0xa7 
                          .reloc:00408335 36                               0x36 '6'
                          .reloc:00408336 b0                               0xb0 
                          .reloc:00408337 36                               0x36 '6'
                          .reloc:00408338 b6                               0xb6 
                          .reloc:00408339 36                               0x36 '6'
                          .reloc:0040833a e7                               0xe7 
                          .reloc:0040833b 36                               0x36 '6'
                          .reloc:0040833c 92                               0x92 
                          .reloc:0040833d 37                               0x37 '7'
                          .reloc:0040833e b1                               0xb1 
                          .reloc:0040833f 37                               0x37 '7'
                          .reloc:00408340 bb                               0xbb 
                          .reloc:00408341 37                               0x37 '7'
                          .reloc:00408342 cc                               0xcc 
                          .reloc:00408343 37                               0x37 '7'
                          .reloc:00408344 f2                               0xf2 
                          .reloc:00408345 37                               0x37 '7'
                          .reloc:00408346 0d                               0x0d '
'
                          .reloc:00408347 38                               0x38 '8'
                          .reloc:00408348 4e                               0x4e 'N'
                          .reloc:00408349 38                               0x38 '8'
                          .reloc:0040834a 54                               0x54 'T'
                          .reloc:0040834b 38                               0x38 '8'
                          .reloc:0040834c 9d                               0x9d 
                          .reloc:0040834d 38                               0x38 '8'
                          .reloc:0040834e a2                               0xa2 
                          .reloc:0040834f 38                               0x38 '8'
                          .reloc:00408350 c8                               0xc8 
                          .reloc:00408351 38                               0x38 '8'
                          .reloc:00408352 cd                               0xcd 
                          .reloc:00408353 38                               0x38 '8'
                          .reloc:00408354 f2                               0xf2 
                          .reloc:00408355 38                               0x38 '8'
                          .reloc:00408356 01                               0x01 
                          .reloc:00408357 39                               0x39 '9'
                          .reloc:00408358 1e                               0x1e 
                          .reloc:00408359 39                               0x39 '9'
                          .reloc:0040835a 6b                               0x6b 'k'
                          .reloc:0040835b 39                               0x39 '9'
                          .reloc:0040835c 70                               0x70 'p'
                          .reloc:0040835d 39                               0x39 '9'
                          .reloc:0040835e 83                               0x83 
                          .reloc:0040835f 39                               0x39 '9'
                          .reloc:00408360 91                               0x91 
                          .reloc:00408361 39                               0x39 '9'
                          .reloc:00408362 ac                               0xac 
                          .reloc:00408363 39                               0x39 '9'
                          .reloc:00408364 b7                               0xb7 
                          .reloc:00408365 39                               0x39 '9'
                          .reloc:00408366 46                               0x46 'F'
                          .reloc:00408367 3a                               0x3a ':'
                          .reloc:00408368 4f                               0x4f 'O'
                          .reloc:00408369 3a                               0x3a ':'
                          .reloc:0040836a 57                               0x57 'W'
                          .reloc:0040836b 3a                               0x3a ':'
                          .reloc:0040836c 9e                               0x9e 
                          .reloc:0040836d 3a                               0x3a ':'
                          .reloc:0040836e ad                               0xad 
                          .reloc:0040836f 3a                               0x3a ':'
                          .reloc:00408370 b4                               0xb4 
                          .reloc:00408371 3a                               0x3a ':'
                          .reloc:00408372 ea                               0xea 
                          .reloc:00408373 3a                               0x3a ':'
                          .reloc:00408374 f3                               0xf3 
                          .reloc:00408375 3a                               0x3a ':'
                          .reloc:00408376 00                               0x00 
                          .reloc:00408377 3b                               0x3b ';'
                          .reloc:00408378 0b                               0x0b ''
                          .reloc:00408379 3b                               0x3b ';'
                          .reloc:0040837a 14                               0x14 
                          .reloc:0040837b 3b                               0x3b ';'
                          .reloc:0040837c 23                               0x23 '#'
                          .reloc:0040837d 3b                               0x3b ';'
                          .reloc:0040837e 2e                               0x2e '.'
                          .reloc:0040837f 3b                               0x3b ';'
                          .reloc:00408380 34                               0x34 '4'
                          .reloc:00408381 3b                               0x3b ';'
                          .reloc:00408382 3a                               0x3a ':'
                          .reloc:00408383 3b                               0x3b ';'
                          .reloc:00408384 40                               0x40 '@'
                          .reloc:00408385 3b                               0x3b ';'
                          .reloc:00408386 46                               0x46 'F'
                          .reloc:00408387 3b                               0x3b ';'
                          .reloc:00408388 4c                               0x4c 'L'
                          .reloc:00408389 3b                               0x3b ';'
                          .reloc:0040838a 52                               0x52 'R'
                          .reloc:0040838b 3b                               0x3b ';'
                          .reloc:0040838c 58                               0x58 'X'
                          .reloc:0040838d 3b                               0x3b ';'
                          .reloc:0040838e 5e                               0x5e '^'
                          .reloc:0040838f 3b                               0x3b ';'
                          .reloc:00408390 64                               0x64 'd'
                          .reloc:00408391 3b                               0x3b ';'
                          .reloc:00408392 6a                               0x6a 'j'
                          .reloc:00408393 3b                               0x3b ';'
                          .reloc:00408394 70                               0x70 'p'
                          .reloc:00408395 3b                               0x3b ';'
                          .reloc:00408396 76                               0x76 'v'
                          .reloc:00408397 3b                               0x3b ';'
                          .reloc:00408398 7c                               0x7c '|'
                          .reloc:00408399 3b                               0x3b ';'
                          .reloc:0040839a 82                               0x82 
                          .reloc:0040839b 3b                               0x3b ';'
                          .reloc:0040839c 88                               0x88 
                          .reloc:0040839d 3b                               0x3b ';'
                          .reloc:0040839e 8e                               0x8e 
                          .reloc:0040839f 3b                               0x3b ';'
                          .reloc:004083a0 94                               0x94 
                          .reloc:004083a1 3b                               0x3b ';'
                          .reloc:004083a2 9a                               0x9a 
                          .reloc:004083a3 3b                               0x3b ';'
                          .reloc:004083a4 a0                               0xa0 
                          .reloc:004083a5 3b                               0x3b ';'
                          .reloc:004083a6 a6                               0xa6 
                          .reloc:004083a7 3b                               0x3b ';'
                          .reloc:004083a8 ac                               0xac 
                          .reloc:004083a9 3b                               0x3b ';'
                          .reloc:004083aa b2                               0xb2 
                          .reloc:004083ab 3b                               0x3b ';'
                          .reloc:004083ac b8                               0xb8 
                          .reloc:004083ad 3b                               0x3b ';'
                          .reloc:004083ae be                               0xbe 
                          .reloc:004083af 3b                               0x3b ';'
                          .reloc:004083b0 c4                               0xc4 
                          .reloc:004083b1 3b                               0x3b ';'
                          .reloc:004083b2 ca                               0xca 
                          .reloc:004083b3 3b                               0x3b ';'
                          .reloc:004083b4 e9                               0xe9 
                          .reloc:004083b5 3b                               0x3b ';'
                          .reloc:004083b6 f8                               0xf8 
                          .reloc:004083b7 3b                               0x3b ';'
                          .reloc:004083b8 07                               0x07 
                          .reloc:004083b9 3c                               0x3c '<'
                          .reloc:004083ba 2c                               0x2c ','
                          .reloc:004083bb 3c                               0x3c '<'
                          .reloc:004083bc 4e                               0x4e 'N'
                          .reloc:004083bd 3c                               0x3c '<'
                          .reloc:004083be 73                               0x73 's'
                          .reloc:004083bf 3c                               0x3c '<'
                          .reloc:004083c0 bb                               0xbb 
                          .reloc:004083c1 3c                               0x3c '<'
                          .reloc:004083c2 c3                               0xc3 
                          .reloc:004083c3 3c                               0x3c '<'
                          .reloc:004083c4 cb                               0xcb 
                          .reloc:004083c5 3c                               0x3c '<'
                          .reloc:004083c6 8f                               0x8f 
                          .reloc:004083c7 3d                               0x3d '='
                          .reloc:004083c8 97                               0x97 
                          .reloc:004083c9 3d                               0x3d '='
                          .reloc:004083ca ca                               0xca 
                          .reloc:004083cb 3d                               0x3d '='
                          .reloc:004083cc d9                               0xd9 
                          .reloc:004083cd 3d                               0x3d '='
                          .reloc:004083ce e8                               0xe8 
                          .reloc:004083cf 3d                               0x3d '='
                          .reloc:004083d0 24                               0x24 '$'
                          .reloc:004083d1 3e                               0x3e '>'
                          .reloc:004083d2 61                               0x61 'a'
                          .reloc:004083d3 3e                               0x3e '>'
                          .reloc:004083d4 9f                               0x9f 
                          .reloc:004083d5 3e                               0x3e '>'
                          .reloc:004083d6 db                               0xdb 
                          .reloc:004083d7 3e                               0x3e '>'
                          .reloc:004083d8 ff                               0xff 
                          .reloc:004083d9 3e                               0x3e '>'
                          .reloc:004083da 16                               0x16 
                          .reloc:004083db 3f                               0x3f '?'
                          .reloc:004083dc 1e                               0x1e 
                          .reloc:004083dd 3f                               0x3f '?'
                          .reloc:004083de 45                               0x45 'E'
                          .reloc:004083df 3f                               0x3f '?'
                          .reloc:004083e0 4e                               0x4e 'N'
                          .reloc:004083e1 3f                               0x3f '?'
                          .reloc:004083e2 5a                               0x5a 'Z'
                          .reloc:004083e3 3f                               0x3f '?'
                          .reloc:004083e4 00                               0x00 
                          .reloc:004083e5 30                               0x30 '0'
                          .reloc:004083e6 00                               0x00 
                          .reloc:004083e7 00                               0x00 
                          .reloc:004083e8 24                               0x24 '$'
                          .reloc:004083e9 00                               0x00 
                          .reloc:004083ea 00                               0x00 
                          .reloc:004083eb 00                               0x00 
                          .reloc:004083ec 3c                               0x3c '<'
                          .reloc:004083ed 31                               0x31 '1'
                          .reloc:004083ee 44                               0x44 'D'
                          .reloc:004083ef 31                               0x31 '1'
                          .reloc:004083f0 50                               0x50 'P'
                          .reloc:004083f1 31                               0x31 '1'
                          .reloc:004083f2 54                               0x54 'T'
                          .reloc:004083f3 31                               0x31 '1'
                          .reloc:004083f4 70                               0x70 'p'
                          .reloc:004083f5 31                               0x31 '1'
                          .reloc:004083f6 74                               0x74 't'
                          .reloc:004083f7 31                               0x31 '1'
                          .reloc:004083f8 0c                               0x0c ''
                          .reloc:004083f9 38                               0x38 '8'
                          .reloc:004083fa 10                               0x10 
                          .reloc:004083fb 38                               0x38 '8'
                          .reloc:004083fc 18                               0x18 
                          .reloc:004083fd 38                               0x38 '8'
                          .reloc:004083fe 4c                               0x4c 'L'
                          .reloc:004083ff 3b                               0x3b ';'
                          .reloc:00408400 50                               0x50 'P'
                          .reloc:00408401 3b                               0x3b ';'
                          .reloc:00408402 6c                               0x6c 'l'
                          .reloc:00408403 3b                               0x3b ';'
                          .reloc:00408404 70                               0x70 'p'
                          .reloc:00408405 3b                               0x3b ';'
                          .reloc:00408406 00                               0x00 
                          .reloc:00408407 00                               0x00 
